 0x000000000000000e (SONAME)             soname da biblioteca: [libcore-framework.so]
stbi_convert_iphone_png_to_rgb T
stbi_convert_iphone_png_to_rgb_thread T
stbi_failure_reason T
stbi_flip_vertically_on_write T
stbi_hdr_to_ldr_gamma T
stbi_hdr_to_ldr_scale T
stbi_image_free T
stbi_info T
stbi_info_from_callbacks T
stbi_info_from_file T
stbi_info_from_memory T
stbi_is_16_bit T
stbi_is_16_bit_from_callbacks T
stbi_is_16_bit_from_file T
stbi_is_16_bit_from_memory T
stbi_is_hdr T
stbi_is_hdr_from_callbacks T
stbi_is_hdr_from_file T
stbi_is_hdr_from_memory T
stbi_ldr_to_hdr_gamma T
stbi_ldr_to_hdr_scale T
stbi_load T
stbi_load_16 T
stbi_load_16_from_callbacks T
stbi_load_16_from_memory T
stbi_loadf T
stbi_loadf_from_callbacks T
stbi_loadf_from_file T
stbi_loadf_from_memory T
stbi_load_from_callbacks T
stbi_load_from_file T
stbi_load_from_file_16 T
stbi_load_from_memory T
stbi_load_gif_from_memory T
stbi_set_flip_vertically_on_load T
stbi_set_flip_vertically_on_load_thread T
stbi_set_unpremultiply_on_load T
stbi_write_bmp T
stbi_write_bmp_to_func T
stbi_write_force_png_filter D 4
stbi_write_hdr T
stbi_write_hdr_to_func T
stbi_write_jpg T
stbi_write_jpg_to_func T
stbi_write_png T
stbi_write_png_compression_level D 4
stbi_write_png_to_func T
stbi_write_png_to_mem T
stbi_write_tga T
stbi_write_tga_to_func T
stbi_write_tga_with_rle D 4
stbi_zlib_compress T
stbi_zlib_decode_buffer T
stbi_zlib_decode_malloc T
stbi_zlib_decode_malloc_guesssize T
stbi_zlib_decode_malloc_guesssize_headerflag T
stbi_zlib_decode_noheader_buffer T
stbi_zlib_decode_noheader_malloc T
_Z34stbi__unpremultiply_on_load_threadi T
_Z4endlv W
_ZdlPvS_ W
_ZN3fmt2v816make_format_argsINS0_20basic_format_contextINS0_8appenderEcEEJRiRPKcEEENS0_16format_arg_storeIT_JDpNSt9remove_cvINSt16remove_referenceIT0_E4typeEE4typeEEEEDpOSD_ W
_ZN3fmt2v816make_format_argsINS0_20basic_format_contextINS0_8appenderEcEEJRjS5_RPKcEEENS0_16format_arg_storeIT_JDpNSt9remove_cvINSt16remove_referenceIT0_E4typeEE4typeEEEEDpOSD_ W
_ZN3fmt2v816make_format_argsINS0_20basic_format_contextINS0_8appenderEcEEJRPcEEENS0_16format_arg_storeIT_JDpNSt9remove_cvINSt16remove_referenceIT0_E4typeEE4typeEEEEDpOSB_ W
_ZN3fmt2v86detail13ignore_unusedIJbEEEvDpRKT_ W
_ZN3glm10orthoRH_NOIfEENS_3matILi4ELi4ET_LNS_9qualifierE0EEES2_S2_S2_S2_S2_S2_ W
_ZN3glm11perspectiveIfEENS_3matILi4ELi4ET_LNS_9qualifierE0EEES2_S2_S2_S2_ W
_ZN3glm16perspectiveRH_NOIfEENS_3matILi4ELi4ET_LNS_9qualifierE0EEES2_S2_S2_S2_ W
_ZN3glm3absIfEET_S1_ W
_ZN3glm3cosILi3EfLNS_9qualifierE0EEENS_3vecIXT_ET0_XT1_EEERKS4_ W
_ZN3glm3dotILi3EfLNS_9qualifierE0EEET0_RKNS_3vecIXT_ES2_XT1_EEES6_ W
_ZN3glm3matILi3ELi3EfLNS_9qualifierE0EE6lengthEv W
_ZN3glm3matILi3ELi3EfLNS_9qualifierE0EEixEi W
_ZN3glm3matILi4ELi4EfLNS_9qualifierE0EE6lengthEv W
_ZN3glm3matILi4ELi4EfLNS_9qualifierE0EEC1ERKf W
_ZN3glm3matILi4ELi4EfLNS_9qualifierE0EEC1ERKNS0_ILi3ELi3EfLS1_0EEE W
_ZN3glm3matILi4ELi4EfLNS_9qualifierE0EEC2ERKf W
_ZN3glm3matILi4ELi4EfLNS_9qualifierE0EEC2ERKNS0_ILi3ELi3EfLS1_0EEE W
_ZN3glm3matILi4ELi4EfLNS_9qualifierE0EEixEi W
_ZN3glm3quaIfLNS_9qualifierE0EEC1Effff W
_ZN3glm3quaIfLNS_9qualifierE0EEC1ERKNS_3vecILi3EfLS1_0EEE W
_ZN3glm3quaIfLNS_9qualifierE0EEC2Effff W
_ZN3glm3quaIfLNS_9qualifierE0EEC2ERKNS_3vecILi3EfLS1_0EEE W
_ZN3glm3quaIfLNS_9qualifierE0EEmLIfEERS2_RKNS0_IT_LS1_0EEE W
_ZN3glm3sinILi3EfLNS_9qualifierE0EEENS_3vecIXT_ET0_XT1_EEERKS4_ W
_ZN3glm3vecILi2EfLNS_9qualifierE0EEC1Eff W
_ZN3glm3vecILi2EfLNS_9qualifierE0EEC2Eff W
_ZN3glm3vecILi2EjLNS_9qualifierE0EEC1Ejj W
_ZN3glm3vecILi2EjLNS_9qualifierE0EEC2Ejj W
_ZN3glm3vecILi3EfLNS_9qualifierE0EE6lengthEv W
_ZN3glm3vecILi3EfLNS_9qualifierE0EEC1Efff W
_ZN3glm3vecILi3EfLNS_9qualifierE0EEC1IiiiEET_T0_T1_ W
_ZN3glm3vecILi3EfLNS_9qualifierE0EEC2Efff W
_ZN3glm3vecILi3EfLNS_9qualifierE0EEC2IiiiEET_T0_T1_ W
_ZN3glm3vecILi3EfLNS_9qualifierE0EEixEi W
_ZN3glm3vecILi3EfLNS_9qualifierE0EEpLIfEERS2_RKNS0_ILi3ET_LS1_0EEE W
_ZN3glm3vecILi4EfLNS_9qualifierE0EE6lengthEv W
_ZN3glm3vecILi4EfLNS_9qualifierE0EEC1Ef W
_ZN3glm3vecILi4EfLNS_9qualifierE0EEC1Effff W
_ZN3glm3vecILi4EfLNS_9qualifierE0EEC1IfiiiEET_T0_T1_T2_ W
_ZN3glm3vecILi4EfLNS_9qualifierE0EEC1IfiLS1_0EEERKNS0_ILi3ET_XT1_EEET0_ W
_ZN3glm3vecILi4EfLNS_9qualifierE0EEC1IifiiEET_T0_T1_T2_ W
_ZN3glm3vecILi4EfLNS_9qualifierE0EEC1IiifiEET_T0_T1_T2_ W
_ZN3glm3vecILi4EfLNS_9qualifierE0EEC1IiiifEET_T0_T1_T2_ W
_ZN3glm3vecILi4EfLNS_9qualifierE0EEC2Ef W
_ZN3glm3vecILi4EfLNS_9qualifierE0EEC2Effff W
_ZN3glm3vecILi4EfLNS_9qualifierE0EEC2IfiiiEET_T0_T1_T2_ W
_ZN3glm3vecILi4EfLNS_9qualifierE0EEC2IfiLS1_0EEERKNS0_ILi3ET_XT1_EEET0_ W
_ZN3glm3vecILi4EfLNS_9qualifierE0EEC2IifiiEET_T0_T1_T2_ W
_ZN3glm3vecILi4EfLNS_9qualifierE0EEC2IiifiEET_T0_T1_T2_ W
_ZN3glm3vecILi4EfLNS_9qualifierE0EEC2IiiifEET_T0_T1_T2_ W
_ZN3glm3vecILi4EfLNS_9qualifierE0EEixEi W
_ZN3glm3vecILi4EfLNS_9qualifierE0EEmLIfEERS2_T_ W
_ZN3glm3vecILi4EfLNS_9qualifierE0EEpLIfEERS2_RKNS0_ILi4ET_LS1_0EEE W
_ZN3glm5orthoIfEENS_3matILi4ELi4ET_LNS_9qualifierE0EEES2_S2_S2_S2_S2_S2_ W
_ZN3glm5scaleIfLNS_9qualifierE0EEENS_3matILi4ELi4ET_XT0_EEERKNS_3vecILi3ES3_XT0_EEE W
_ZN3glm5scaleIfLNS_9qualifierE0EEENS_3matILi4ELi4ET_XT0_EEERKS4_RKNS_3vecILi3ES3_XT0_EEE W
_ZN3glm6detail11compute_absIfLb1EE4callEf W
_ZN3glm6detail11compute_dotINS_3vecILi3EfLNS_9qualifierE0EEEfLb0EE4callERKS4_S7_ W
_ZN3glm6detail14compute_lengthILi3EfLNS_9qualifierE0ELb0EE4callERKNS_3vecILi3EfLS2_0EEE W
_ZN3glm6detail16compute_distanceILi3EfLNS_9qualifierE0ELb0EE4callERKNS_3vecILi3EfLS2_0EEES7_ W
_ZN3glm6detail16compute_vec4_addIfLNS_9qualifierE0ELb0EE4callERKNS_3vecILi4EfLS2_0EEES7_ W
_ZN3glm6detail16compute_vec4_mulIfLNS_9qualifierE0ELb0EE4callERKNS_3vecILi4EfLS2_0EEES7_ W
_ZN3glm6detail8functor1INS_3vecELi3EffLNS_9qualifierE0EE4callEPFffERKNS2_ILi3EfLS3_0EEE W
_ZN3glm6lengthILi3EfLNS_9qualifierE0EEET0_RKNS_3vecIXT_ES2_XT1_EEE W
_ZN3glm6rotateIfLNS_9qualifierE0EEENS_3quaIT_XT0_EEERKS4_RKS3_RKNS_3vecILi3ES3_XT0_EEE W
_ZN3glm6toMat4IfLNS_9qualifierE0EEENS_3matILi4ELi4ET_XT0_EEERKNS_3quaIS3_XT0_EEE W
_ZN3glm8distanceILi3EfLNS_9qualifierE0EEET0_RKNS_3vecIXT_ES2_XT1_EEES6_ W
_ZN3glm9mat3_castIfLNS_9qualifierE0EEENS_3matILi3ELi3ET_XT0_EEERKNS_3quaIS3_XT0_EEE W
_ZN3glm9mat4_castIfLNS_9qualifierE0EEENS_3matILi4ELi4ET_XT0_EEERKNS_3quaIS3_XT0_EEE W
_ZN3glm9translateIfLNS_9qualifierE0EEENS_3matILi4ELi4ET_XT0_EEERKNS_3vecILi3ES3_XT0_EEE W
_ZN3glm9translateIfLNS_9qualifierE0EEENS_3matILi4ELi4ET_XT0_EEERKS4_RKNS_3vecILi3ES3_XT0_EEE W
_ZN3glm9value_ptrIfLNS_9qualifierE0EEEPKT_RKNS_3matILi4ELi4ES2_XT0_EEE W
_ZN3glm9value_ptrIfLNS_9qualifierE0EEEPT_RNS_3matILi4ELi4ES2_XT0_EEE W
_ZN3glmmiIfLNS_9qualifierE0EEENS_3vecILi3ET_XT0_EEERKS4_S6_ W
_ZN3glmmlIfLNS_9qualifierE0EEENS_3matILi4ELi4ET_XT0_EEERKS4_S6_ W
_ZN3glmmlIfLNS_9qualifierE0EEENS_3quaIT_XT0_EEERKS4_S6_ W
_ZN3glmmlIfLNS_9qualifierE0EEENS_3vecILi3ET_XT0_EEERKS4_S3_ W
_ZN3glmmlIfLNS_9qualifierE0EEENS_3vecILi3ET_XT0_EEERKS4_S6_ W
_ZN3glmmlIfLNS_9qualifierE0EEENS_3vecILi4ET_XT0_EEERKS4_RKS3_ W
_ZN3glmplIfLNS_9qualifierE0EEENS_3vecILi4ET_XT0_EEERKS4_S6_ W
_ZN4core11view_matrixE D 40
_ZN4core13RandomMachine10rand_floatEff T
_ZN4core13RandomMachine11rand_doubleEdd T
_ZN4core13RandomMachine8rand_intEii T
_ZN4core13RandomMachine9rand_uintEjj T
_ZN4core13RandomMachineC1Ev T
_ZN4core13RandomMachineC2Ev T
_ZN4core17projection_matrixE D 40
_ZN4core2gl11VertexArray4bindEv T
_ZN4core2gl11VertexArray6unbindEv T
_ZN4core2gl11VertexArrayC1Ev T
_ZN4core2gl11VertexArrayC2Ev T
_ZN4core2gl11VertexArrayD1Ev T
_ZN4core2gl11VertexArrayD2Ev T
_ZN4core2gl12VertexBuffer4bindEv T
_ZN4core2gl12VertexBuffer6unbindEv T
_ZN4core2gl12VertexBuffer8set_dataEPfmj T
_ZN4core2gl12VertexBuffer8set_dataEPjmj T
_ZN4core2gl12VertexBufferC1Ej T
_ZN4core2gl12VertexBufferC2Ej T
_ZN4core2gl12VertexBufferD1Ev T
_ZN4core2gl12VertexBufferD2Ev T
_ZN4core2gl13ShaderProgram10detach_allEv T
_ZN4core2gl13ShaderProgram3useEv T
_ZN4core2gl13ShaderProgram4linkEv T
_ZN4core2gl13ShaderProgram6attachERNS0_6ShaderE T
_ZN4core2gl13ShaderProgram6detachERNS0_6ShaderE T
_ZN4core2gl13ShaderProgram9detach_idEj T
_ZN4core2gl13ShaderProgramC1Ev T
_ZN4core2gl13ShaderProgramC2Ev T
_ZN4core2gl13ShaderProgramD1Ev T
_ZN4core2gl13ShaderProgramD2Ev T
_ZN4core2gl14GLObjectWithID6get_idEv T
_ZN4core2gl16GLObjectWithBind4bindEv T
_ZN4core2gl16GLObjectWithBind6unbindEv T
_ZN4core2gl16GLObjectWithBindC1Ev W
_ZN4core2gl16GLObjectWithBindC2Ev W
_ZN4core2gl6Shader18verify_initializedEv T
_ZN4core2gl6Shader6createENSt10filesystem7__cxx114pathEj T
_ZN4core2gl6Shader6createENSt7__cxx1112basic_stringIcSt11char_traitsIcESaIcEEEj T
_ZN4core2gl6Shader7compileEv T
_ZN4core2gl6ShaderC1ENSt10filesystem7__cxx114pathEj T
_ZN4core2gl6ShaderC1ENSt7__cxx1112basic_stringIcSt11char_traitsIcESaIcEEEj T
_ZN4core2gl6ShaderC1Ev T
_ZN4core2gl6ShaderC2ENSt10filesystem7__cxx114pathEj T
_ZN4core2gl6ShaderC2ENSt7__cxx1112basic_stringIcSt11char_traitsIcESaIcEEEj T
_ZN4core2gl6ShaderC2Ev T
_ZN4core2gl6ShaderD1Ev T
_ZN4core2gl6ShaderD2Ev T
_ZN4core4testE B 4
_ZN4core5Scene12handle_eventEf T
_ZN4core5Scene4drawERNS_8graphics6WindowE T
_ZN4core5Scene4initEv T
_ZN4core5Scene6updateEf T
_ZN4core5SceneC1ERNS_8graphics6WindowENSt7__cxx1112basic_stringIcSt11char_traitsIcESaIcEEE T
_ZN4core5SceneC2ERNS_8graphics6WindowENSt7__cxx1112basic_stringIcSt11char_traitsIcESaIcEEE T
_ZN4core5SceneD1Ev T
_ZN4core5SceneD2Ev T
_ZN4core6Object12handle_eventEf T
_ZN4core6Object4drawERNS_8graphics6WindowE T
_ZN4core8graphics4View10set_activeEv T
_ZN4core8graphics4ViewC1Ev W
_ZN4core8graphics4ViewC2Ev W
_ZN4core8graphics5Color3redEv T
_ZN4core8graphics5Color4blueEv T
_ZN4core8graphics5Color5blackEv T
_ZN4core8graphics5Color5greenEv T
_ZN4core8graphics5Color5whiteEv T
_ZN4core8graphics5ColorC1Ehhhh T
_ZN4core8graphics5ColorC1Ev T
_ZN4core8graphics5ColorC2Ehhhh T
_ZN4core8graphics5ColorC2Ev T
_ZN4core8graphics5Image4saveENSt10filesystem7__cxx114pathE T
_ZN4core8graphics5Image8get_dataEv T
_ZN4core8graphics5Image9set_pixelEN3glm3vecILi2EjLNS2_9qualifierE0EEENS0_5ColorE T
_ZN4core8graphics5ImageC1EN3glm3vecILi2EjLNS2_9qualifierE0EEENS0_5ColorE T
_ZN4core8graphics5ImageC1ENSt10filesystem7__cxx114pathE T
_ZN4core8graphics5ImageC2EN3glm3vecILi2EjLNS2_9qualifierE0EEENS0_5ColorE T
_ZN4core8graphics5ImageC2ENSt10filesystem7__cxx114pathE T
_ZN4core8graphics5ImageD1Ev T
_ZN4core8graphics5ImageD2Ev T
_ZN4core8graphics5Shape14create_objectsEv T
_ZN4core8graphics5Shape4bindEv T
_ZN4core8graphics5Shape6unbindEv T
_ZN4core8graphics5ShapeaSEOS1_ W
_ZN4core8graphics5ShapeC1Ev W
_ZN4core8graphics5ShapeC2Ev W
_ZN4core8graphics5ShapeD1Ev W
_ZN4core8graphics5ShapeD2Ev W
_ZN4core8graphics6Sprite11set_textureERNS0_7TextureE T
_ZN4core8graphics6Sprite4drawEv T
_ZN4core8graphics6SpriteC1Ev T
_ZN4core8graphics6SpriteC2Ev T
_ZN4core8graphics6View2DC1Effffff T
_ZN4core8graphics6View2DC2Effffff T
_ZN4core8graphics6View3DC1Effff T
_ZN4core8graphics6View3DC2Effff T
_ZN4core8graphics6Window13get_mouse_posEv T
_ZN4core8graphics6Window13init_backendsEv T
_ZN4core8graphics6Window14create_contextEv T
_ZN4core8graphics6Window14is_key_pressedEi T
_ZN4core8graphics6Window15destroy_contextEv T
_ZN4core8graphics6Window15get_glfw_windowEv T
_ZN4core8graphics6Window15is_key_releasedEi T
_ZN4core8graphics6Window16get_mouse_buttonEi T
_ZN4core8graphics6Window17shutdown_backendsEv T
_ZN4core8graphics6Window19glfw_error_callbackEiPKc T
_ZN4core8graphics6Window20create_imgui_contextEv T
_ZN4core8graphics6Window21create_opengl_contextEv T
_ZN4core8graphics6Window21destroy_imgui_contextEv T
_ZN4core8graphics6Window23is_mouse_button_pressedEi T
_ZN4core8graphics6Window23opengl_message_callbackEjjjjiPKcPKv T
_ZN4core8graphics6Window24is_mouse_button_releasedEi T
_ZN4core8graphics6Window5clearENS0_5ColorE T
_ZN4core8graphics6Window5closeEv T
_ZN4core8graphics6Window6renderEv T
_ZN4core8graphics6Window7get_keyEi T
_ZN4core8graphics6Window7is_openEv T
_ZN4core8graphics6Window8get_sizeEv T
_ZN4core8graphics6Window9init_glewEv T
_ZN4core8graphics6Window9new_frameEv T
_ZN4core8graphics6WindowC1Ev T
_ZN4core8graphics6WindowC2Ev T
_ZN4core8graphics6WindowD1Ev T
_ZN4core8graphics6WindowD2Ev T
_ZN4core8graphics7Texture4bindEv T
_ZN4core8graphics7Texture4loadERNS0_5ImageE T
_ZN4core8graphics7Texture6unbindEv T
_ZN4core8graphics7TextureC1Ev T
_ZN4core8graphics7TextureC2Ev T
_ZN4core8graphics7TextureD1Ev T
_ZN4core8graphics7TextureD2Ev T
_ZN4core8graphics9RectangleC1Ev T
_ZN4core8graphics9RectangleC2Ev T
_ZN4core8graphics9RectangleD1Ev W
_ZN4core8graphics9RectangleD2Ev W
_ZN4core9Transform11distance_toERS0_ T
_ZN4core9Transform6rotateEfN3glm3vecILi3EfLNS1_9qualifierE0EEE T
_ZN4core9Transform9translateEN3glm3vecILi3EfLNS1_9qualifierE0EEE T
_ZN4core9TransformC1Ev T
_ZN4core9TransformC2Ev T
_ZN7ImGuiIOC1ERKS_ W
_ZN7ImGuiIOC2ERKS_ W
_ZN7ImGuiIOD1Ev W
_ZN7ImGuiIOD2Ev W
_ZN8ImVectorItE5clearEv W
_ZN8ImVectorItE6resizeEi W
_ZN8ImVectorItE7reserveEi W
_ZN8ImVectorItEaSERKS0_ W
_ZN8ImVectorItEC1ERKS0_ W
_ZN8ImVectorItEC2ERKS0_ W
_ZN8ImVectorItED1Ev W
_ZN8ImVectorItED2Ev W
_ZN9__gnu_cxx11char_traitsIcE2eqERKcS3_ W
_ZN9__gnu_cxx11char_traitsIcE4copyEPcPKcm W
_ZN9__gnu_cxx11char_traitsIcE6lengthEPKc W
_ZN9__gnu_cxx14__alloc_traitsISaIcEcE15_S_always_equalEv W
_ZN9__gnu_cxx14__alloc_traitsISaIcEcE17_S_select_on_copyERKS1_ W
_ZN9__gnu_cxx14__alloc_traitsISaIcEcE27_S_propagate_on_copy_assignEv W
_ZN9__gnu_cxx14__alloc_traitsISaIcEcE27_S_propagate_on_move_assignEv W
_ZN9__gnu_cxx16__aligned_bufferIN4core2gl11VertexArrayEE6_M_ptrEv W
_ZN9__gnu_cxx16__aligned_bufferIN4core2gl11VertexArrayEE7_M_addrEv W
_ZN9__gnu_cxx16__aligned_bufferIN4core2gl12VertexBufferEE6_M_ptrEv W
_ZN9__gnu_cxx16__aligned_bufferIN4core2gl12VertexBufferEE7_M_addrEv W
_ZN9__gnu_cxx17__normal_iteratorIPjSt6vectorIjSaIjEEEC1ERKS1_ W
_ZN9__gnu_cxx17__normal_iteratorIPjSt6vectorIjSaIjEEEC2ERKS1_ W
_ZN9__gnu_cxx17__normal_iteratorIPjSt6vectorIjSaIjEEEppEi W
_ZN9__gnu_cxx17__normal_iteratorIPjvEC1ERKS1_ W
_ZN9__gnu_cxx17__normal_iteratorIPjvEC2ERKS1_ W
_ZN9__gnu_cxx17__normal_iteratorIPjvEppEv W
_ZN9__gnu_cxx17__normal_iteratorIPKjSt6vectorIjSaIjEEEC1ERKS2_ W
_ZN9__gnu_cxx17__normal_iteratorIPKjSt6vectorIjSaIjEEEC1IPjvEERKNS0_IT_S5_EE W
_ZN9__gnu_cxx17__normal_iteratorIPKjSt6vectorIjSaIjEEEC2ERKS2_ W
_ZN9__gnu_cxx17__normal_iteratorIPKjSt6vectorIjSaIjEEEC2IPjvEERKNS0_IT_S5_EE W
_ZN9__gnu_cxxeqIPjSt6vectorIjSaIjEEEEbRKNS_17__normal_iteratorIT_T0_EESA_ W
_ZN9__gnu_cxxmiIPjSt6vectorIjSaIjEEEENS_17__normal_iteratorIT_T0_E15difference_typeERKS8_SB_ W
_ZN9__gnu_cxxmiIPKjSt6vectorIjSaIjEEEENS_17__normal_iteratorIT_T0_E15difference_typeERKS9_SC_ W
_ZNK3glm3matILi3ELi3EfLNS_9qualifierE0EEixEi W
_ZNK3glm3matILi4ELi4EfLNS_9qualifierE0EEixEi W
_ZNK3glm3vecILi3EfLNS_9qualifierE0EEixEi W
_ZNK3glm3vecILi4EfLNS_9qualifierE0EEixEi W
_ZNK4core8graphics5Image8is_validEv T
_ZNK4core8graphics5Image9get_pixelEN3glm3vecILi2EjLNS2_9qualifierE0EEE T
_ZNK4core8graphics5Image9in_boundsEN3glm3vecILi2EjLNS2_9qualifierE0EEE T
_ZNK4core9Transform10get_matrixEv T
_ZNK8ImVectorItE14_grow_capacityEi W
_ZNK9__gnu_cxx17__normal_iteratorIPjSt6vectorIjSaIjEEE4baseEv W
_ZNK9__gnu_cxx17__normal_iteratorIPjSt6vectorIjSaIjEEEdeEv W
_ZNK9__gnu_cxx17__normal_iteratorIPjSt6vectorIjSaIjEEEmiEl W
_ZNK9__gnu_cxx17__normal_iteratorIPjSt6vectorIjSaIjEEEplEl W
_ZNK9__gnu_cxx17__normal_iteratorIPjvE4baseEv W
_ZNK9__gnu_cxx17__normal_iteratorIPjvEdeEv W
_ZNK9__gnu_cxx17__normal_iteratorIPKjSt6vectorIjSaIjEEE4baseEv W
_ZNKSt10filesystem7__cxx114path5c_strEv W
_ZNKSt12__shared_ptrIN4core2gl11VertexArrayELN9__gnu_cxx12_Lock_policyE2EE3getEv W
_ZNKSt12__shared_ptrIN4core2gl11VertexArrayELN9__gnu_cxx12_Lock_policyE2EEcvbEv W
_ZNKSt12__shared_ptrIN4core2gl12VertexBufferELN9__gnu_cxx12_Lock_policyE2EE3getEv W
_ZNKSt12_Vector_baseIjSaIjEE19_M_get_Tp_allocatorEv W
_ZNKSt15__new_allocatorIcE11_M_max_sizeEv W
_ZNKSt15__new_allocatorIjE11_M_max_sizeEv W
_ZNKSt15__new_allocatorISt23_Sp_counted_ptr_inplaceIN4core2gl11VertexArrayESaIvELN9__gnu_cxx12_Lock_policyE2EEE11_M_max_sizeEv W
_ZNKSt15__new_allocatorISt23_Sp_counted_ptr_inplaceIN4core2gl12VertexBufferESaIvELN9__gnu_cxx12_Lock_policyE2EEE11_M_max_sizeEv W
_ZNKSt17basic_string_viewIcSt11char_traitsIcEE4dataEv W
_ZNKSt17basic_string_viewIcSt11char_traitsIcEE4sizeEv W
_ZNKSt19__shared_ptr_accessIN4core2gl11VertexArrayELN9__gnu_cxx12_Lock_policyE2ELb0ELb0EE6_M_getEv W
_ZNKSt19__shared_ptr_accessIN4core2gl11VertexArrayELN9__gnu_cxx12_Lock_policyE2ELb0ELb0EEptEv W
_ZNKSt19__shared_ptr_accessIN4core2gl12VertexBufferELN9__gnu_cxx12_Lock_policyE2ELb0ELb0EE6_M_getEv W
_ZNKSt19__shared_ptr_accessIN4core2gl12VertexBufferELN9__gnu_cxx12_Lock_policyE2ELb0ELb0EEptEv W
_ZNKSt24uniform_int_distributionIjE10param_type1aEv W
_ZNKSt24uniform_int_distributionIjE10param_type1bEv W
_ZNKSt24uniform_int_distributionImE10param_type1aEv W
_ZNKSt24uniform_int_distributionImE10param_type1bEv W
_ZNKSt25uniform_real_distributionIdE10param_type1aEv W
_ZNKSt25uniform_real_distributionIdE10param_type1bEv W
_ZNKSt25uniform_real_distributionIfE10param_type1aEv W
_ZNKSt25uniform_real_distributionIfE10param_type1bEv W
_ZNKSt6vectorIjSaIjEE12_M_check_lenEmPKc W
_ZNKSt6vectorIjSaIjEE4sizeEv W
_ZNKSt6vectorIjSaIjEE6cbeginEv W
_ZNKSt6vectorIjSaIjEE8max_sizeEv W
_ZNKSt7__cxx1112basic_stringIcSt11char_traitsIcESaIcEE11_M_is_localEv W
_ZNKSt7__cxx1112basic_stringIcSt11char_traitsIcESaIcEE13_M_local_dataEv W
_ZNKSt7__cxx1112basic_stringIcSt11char_traitsIcESaIcEE16_M_get_allocatorEv W
_ZNKSt7__cxx1112basic_stringIcSt11char_traitsIcESaIcEE4sizeEv W
_ZNKSt7__cxx1112basic_stringIcSt11char_traitsIcESaIcEE5c_strEv W
_ZNKSt7__cxx1112basic_stringIcSt11char_traitsIcESaIcEE6lengthEv W
_ZNKSt7__cxx1112basic_stringIcSt11char_traitsIcESaIcEE7_M_dataEv W
_ZNKSt7__cxx1112basic_stringIcSt11char_traitsIcESaIcEE8capacityEv W
_ZNKSt7__cxx1112basic_stringIcSt11char_traitsIcESaIcEE8max_sizeEv W
_ZNKSt9type_info4nameEv W
_ZNKSt9type_infoeqERKS_ W
_ZNSaIjEC1Ev W
_ZNSaIjEC2Ev W
_ZNSaIjED1Ev W
_ZNSaIjED2Ev W
_ZNSaISt23_Sp_counted_ptr_inplaceIN4core2gl11VertexArrayESaIvELN9__gnu_cxx12_Lock_policyE2EEEC1IvEERKSaIT_E W
_ZNSaISt23_Sp_counted_ptr_inplaceIN4core2gl11VertexArrayESaIvELN9__gnu_cxx12_Lock_policyE2EEEC2IvEERKSaIT_E W
_ZNSaISt23_Sp_counted_ptr_inplaceIN4core2gl11VertexArrayESaIvELN9__gnu_cxx12_Lock_policyE2EEED1Ev W
_ZNSaISt23_Sp_counted_ptr_inplaceIN4core2gl11VertexArrayESaIvELN9__gnu_cxx12_Lock_policyE2EEED2Ev W
_ZNSaISt23_Sp_counted_ptr_inplaceIN4core2gl12VertexBufferESaIvELN9__gnu_cxx12_Lock_policyE2EEEC1IvEERKSaIT_E W
_ZNSaISt23_Sp_counted_ptr_inplaceIN4core2gl12VertexBufferESaIvELN9__gnu_cxx12_Lock_policyE2EEEC2IvEERKSaIT_E W
_ZNSaISt23_Sp_counted_ptr_inplaceIN4core2gl12VertexBufferESaIvELN9__gnu_cxx12_Lock_policyE2EEED1Ev W
_ZNSaISt23_Sp_counted_ptr_inplaceIN4core2gl12VertexBufferESaIvELN9__gnu_cxx12_Lock_policyE2EEED2Ev W
_ZNSt10filesystem7__cxx114path10_S_convertISt17basic_string_viewIcSt11char_traitsIcEEEEDaT_ W
_ZNSt10filesystem7__cxx114path5_ListD1Ev W
_ZNSt10filesystem7__cxx114path5_ListD2Ev W
_ZNSt10filesystem7__cxx114pathC1ERKS1_ W
_ZNSt10filesystem7__cxx114pathC1IA27_cS1_EERKT_NS1_6formatE W
_ZNSt10filesystem7__cxx114pathC2ERKS1_ W
_ZNSt10filesystem7__cxx114pathC2IA27_cS1_EERKT_NS1_6formatE W
_ZNSt10filesystem7__cxx114pathD1Ev W
_ZNSt10filesystem7__cxx114pathD2Ev W
_ZNSt10filesystem7__cxx118__detail17__effective_rangeIA27_cEEDaRKT_ W
_ZNSt10_Head_baseILm0EPNSt10filesystem7__cxx114path5_List5_ImplELb0EE7_M_headERS6_ W
_ZNSt10_Head_baseILm1ENSt10filesystem7__cxx114path5_List13_Impl_deleterELb1EE7_M_headERS5_ W
_ZNSt10shared_ptrIN4core2gl11VertexArrayEEaSEOS3_ W
_ZNSt10shared_ptrIN4core2gl11VertexArrayEEC1Ev W
_ZNSt10shared_ptrIN4core2gl11VertexArrayEEC1ISaIvEJEEESt20_Sp_alloc_shared_tagIT_EDpOT0_ W
_ZNSt10shared_ptrIN4core2gl11VertexArrayEEC2Ev W
_ZNSt10shared_ptrIN4core2gl11VertexArrayEEC2ISaIvEJEEESt20_Sp_alloc_shared_tagIT_EDpOT0_ W
_ZNSt10shared_ptrIN4core2gl11VertexArrayEED1Ev W
_ZNSt10shared_ptrIN4core2gl11VertexArrayEED2Ev W
_ZNSt10shared_ptrIN4core2gl12VertexBufferEEaSEOS3_ W
_ZNSt10shared_ptrIN4core2gl12VertexBufferEEC1Ev W
_ZNSt10shared_ptrIN4core2gl12VertexBufferEEC1ISaIvEJiEEESt20_Sp_alloc_shared_tagIT_EDpOT0_ W
_ZNSt10shared_ptrIN4core2gl12VertexBufferEEC2Ev W
_ZNSt10shared_ptrIN4core2gl12VertexBufferEEC2ISaIvEJiEEESt20_Sp_alloc_shared_tagIT_EDpOT0_ W
_ZNSt10shared_ptrIN4core2gl12VertexBufferEED1Ev W
_ZNSt10shared_ptrIN4core2gl12VertexBufferEED2Ev W
_ZNSt10unique_ptrINSt10filesystem7__cxx114path5_List5_ImplENS3_13_Impl_deleterEE11get_deleterEv W
_ZNSt10unique_ptrINSt10filesystem7__cxx114path5_List5_ImplENS3_13_Impl_deleterEED1Ev W
_ZNSt10unique_ptrINSt10filesystem7__cxx114path5_List5_ImplENS3_13_Impl_deleterEED2Ev W
_ZNSt11char_traitsIcE4copyEPcPKcm W
_ZNSt11char_traitsIcE6assignERcRKc W
_ZNSt11char_traitsIcE6lengthEPKc W
_ZNSt11__copy_moveILb1ELb0ESt26random_access_iterator_tagE8__copy_mIPjS3_EET0_T_S5_S4_ W
_ZNSt11__copy_moveILb1ELb1ESt26random_access_iterator_tagE8__copy_mIjEEPT_PKS3_S6_S4_ W
_ZNSt11_Tuple_implILm0EJPNSt10filesystem7__cxx114path5_List5_ImplENS3_13_Impl_deleterEEE7_M_headERS7_ W
_ZNSt11_Tuple_implILm1EJNSt10filesystem7__cxx114path5_List13_Impl_deleterEEE7_M_headERS5_ W
_ZNSt12_Destroy_auxILb0EE9__destroyIPcEEvT_S3_ W
_ZNSt12_Destroy_auxILb0EE9__destroyIPjEEvT_S3_ W
_ZNSt12_Destroy_auxILb1EE9__destroyIPcEEvT_S3_ W
_ZNSt12_Destroy_auxILb1EE9__destroyIPjEEvT_S3_ W
_ZNSt12__shared_ptrIN4core2gl11VertexArrayELN9__gnu_cxx12_Lock_policyE2EE31_M_enable_shared_from_this_withIS2_S2_EENSt9enable_ifIXntsrNS5_15__has_esft_baseIT0_vEE5valueEvE4typeEPT_ W
_ZNSt12__shared_ptrIN4core2gl11VertexArrayELN9__gnu_cxx12_Lock_policyE2EE4swapERS5_ W
_ZNSt12__shared_ptrIN4core2gl11VertexArrayELN9__gnu_cxx12_Lock_policyE2EEaSEOS5_ W
_ZNSt12__shared_ptrIN4core2gl11VertexArrayELN9__gnu_cxx12_Lock_policyE2EEC1EOS5_ W
_ZNSt12__shared_ptrIN4core2gl11VertexArrayELN9__gnu_cxx12_Lock_policyE2EEC1Ev W
_ZNSt12__shared_ptrIN4core2gl11VertexArrayELN9__gnu_cxx12_Lock_policyE2EEC1ISaIvEJEEESt20_Sp_alloc_shared_tagIT_EDpOT0_ W
_ZNSt12__shared_ptrIN4core2gl11VertexArrayELN9__gnu_cxx12_Lock_policyE2EEC2EOS5_ W
_ZNSt12__shared_ptrIN4core2gl11VertexArrayELN9__gnu_cxx12_Lock_policyE2EEC2Ev W
_ZNSt12__shared_ptrIN4core2gl11VertexArrayELN9__gnu_cxx12_Lock_policyE2EEC2ISaIvEJEEESt20_Sp_alloc_shared_tagIT_EDpOT0_ W
_ZNSt12__shared_ptrIN4core2gl11VertexArrayELN9__gnu_cxx12_Lock_policyE2EED1Ev W
_ZNSt12__shared_ptrIN4core2gl11VertexArrayELN9__gnu_cxx12_Lock_policyE2EED2Ev W
_ZNSt12__shared_ptrIN4core2gl12VertexBufferELN9__gnu_cxx12_Lock_policyE2EE31_M_enable_shared_from_this_withIS2_S2_EENSt9enable_ifIXntsrNS5_15__has_esft_baseIT0_vEE5valueEvE4typeEPT_ W
_ZNSt12__shared_ptrIN4core2gl12VertexBufferELN9__gnu_cxx12_Lock_policyE2EE4swapERS5_ W
_ZNSt12__shared_ptrIN4core2gl12VertexBufferELN9__gnu_cxx12_Lock_policyE2EEaSEOS5_ W
_ZNSt12__shared_ptrIN4core2gl12VertexBufferELN9__gnu_cxx12_Lock_policyE2EEC1EOS5_ W
_ZNSt12__shared_ptrIN4core2gl12VertexBufferELN9__gnu_cxx12_Lock_policyE2EEC1Ev W
_ZNSt12__shared_ptrIN4core2gl12VertexBufferELN9__gnu_cxx12_Lock_policyE2EEC1ISaIvEJiEEESt20_Sp_alloc_shared_tagIT_EDpOT0_ W
_ZNSt12__shared_ptrIN4core2gl12VertexBufferELN9__gnu_cxx12_Lock_policyE2EEC2EOS5_ W
_ZNSt12__shared_ptrIN4core2gl12VertexBufferELN9__gnu_cxx12_Lock_policyE2EEC2Ev W
_ZNSt12__shared_ptrIN4core2gl12VertexBufferELN9__gnu_cxx12_Lock_policyE2EEC2ISaIvEJiEEESt20_Sp_alloc_shared_tagIT_EDpOT0_ W
_ZNSt12__shared_ptrIN4core2gl12VertexBufferELN9__gnu_cxx12_Lock_policyE2EED1Ev W
_ZNSt12__shared_ptrIN4core2gl12VertexBufferELN9__gnu_cxx12_Lock_policyE2EED2Ev W
_ZNSt12_Vector_baseIcSaIcEE11_M_allocateEm W
_ZNSt12_Vector_baseIcSaIcEE12_Vector_implC1ERKS0_ W
_ZNSt12_Vector_baseIcSaIcEE12_Vector_implC2ERKS0_ W
_ZNSt12_Vector_baseIcSaIcEE12_Vector_implD1Ev W
_ZNSt12_Vector_baseIcSaIcEE12_Vector_implD2Ev W
_ZNSt12_Vector_baseIcSaIcEE13_M_deallocateEPcm W
_ZNSt12_Vector_baseIcSaIcEE17_M_create_storageEm W
_ZNSt12_Vector_baseIcSaIcEE17_Vector_impl_dataC1Ev W
_ZNSt12_Vector_baseIcSaIcEE17_Vector_impl_dataC2Ev W
_ZNSt12_Vector_baseIcSaIcEE19_M_get_Tp_allocatorEv W
_ZNSt12_Vector_baseIcSaIcEEC1EmRKS0_ W
_ZNSt12_Vector_baseIcSaIcEEC2EmRKS0_ W
_ZNSt12_Vector_baseIcSaIcEED1Ev W
_ZNSt12_Vector_baseIcSaIcEED2Ev W
_ZNSt12_Vector_baseIjSaIjEE11_M_allocateEm W
_ZNSt12_Vector_baseIjSaIjEE12_Vector_implC1Ev W
_ZNSt12_Vector_baseIjSaIjEE12_Vector_implC2Ev W
_ZNSt12_Vector_baseIjSaIjEE12_Vector_implD1Ev W
_ZNSt12_Vector_baseIjSaIjEE12_Vector_implD2Ev W
_ZNSt12_Vector_baseIjSaIjEE13_M_deallocateEPjm W
_ZNSt12_Vector_baseIjSaIjEE17_Vector_impl_dataC1Ev W
_ZNSt12_Vector_baseIjSaIjEE17_Vector_impl_dataC2Ev W
_ZNSt12_Vector_baseIjSaIjEE19_M_get_Tp_allocatorEv W
_ZNSt12_Vector_baseIjSaIjEEC1Ev W
_ZNSt12_Vector_baseIjSaIjEEC2Ev W
_ZNSt12_Vector_baseIjSaIjEED1Ev W
_ZNSt12_Vector_baseIjSaIjEED2Ev W
_ZNSt13random_deviceC1Ev W
_ZNSt13random_deviceC2Ev W
_ZNSt13random_deviceclEv W
_ZNSt13random_deviceD1Ev W
_ZNSt13random_deviceD2Ev W
_ZNSt14basic_ifstreamIcSt11char_traitsIcEEC1INSt10filesystem7__cxx114pathES6_EERKT_St13_Ios_Openmode W
_ZNSt14numeric_limitsIfE7epsilonEv W
_ZNSt14__shared_countILN9__gnu_cxx12_Lock_policyE2EE7_M_swapERS2_ W
_ZNSt14__shared_countILN9__gnu_cxx12_Lock_policyE2EEC1Ev W
_ZNSt14__shared_countILN9__gnu_cxx12_Lock_policyE2EEC1IN4core2gl11VertexArrayESaIvEJEEERPT_St20_Sp_alloc_shared_tagIT0_EDpOT1_ W
_ZNSt14__shared_countILN9__gnu_cxx12_Lock_policyE2EEC1IN4core2gl12VertexBufferESaIvEJiEEERPT_St20_Sp_alloc_shared_tagIT0_EDpOT1_ W
_ZNSt14__shared_countILN9__gnu_cxx12_Lock_policyE2EEC2Ev W
_ZNSt14__shared_countILN9__gnu_cxx12_Lock_policyE2EEC2IN4core2gl11VertexArrayESaIvEJEEERPT_St20_Sp_alloc_shared_tagIT0_EDpOT1_ W
_ZNSt14__shared_countILN9__gnu_cxx12_Lock_policyE2EEC2IN4core2gl12VertexBufferESaIvEJiEEERPT_St20_Sp_alloc_shared_tagIT0_EDpOT1_ W
_ZNSt14__shared_countILN9__gnu_cxx12_Lock_policyE2EED1Ev W
_ZNSt14__shared_countILN9__gnu_cxx12_Lock_policyE2EED2Ev W
_ZNSt14_Sp_ebo_helperILi0ESaIvELb1EE6_S_getERS1_ W
_ZNSt14_Sp_ebo_helperILi0ESaIvELb1EEC1ERKS0_ W
_ZNSt14_Sp_ebo_helperILi0ESaIvELb1EEC2ERKS0_ W
_ZNSt15__allocated_ptrISaISt23_Sp_counted_ptr_inplaceIN4core2gl11VertexArrayESaIvELN9__gnu_cxx12_Lock_policyE2EEEE3getEv W
_ZNSt15__allocated_ptrISaISt23_Sp_counted_ptr_inplaceIN4core2gl11VertexArrayESaIvELN9__gnu_cxx12_Lock_policyE2EEEEaSEDn W
_ZNSt15__allocated_ptrISaISt23_Sp_counted_ptr_inplaceIN4core2gl11VertexArrayESaIvELN9__gnu_cxx12_Lock_policyE2EEEEC1ERS8_PS7_ W
_ZNSt15__allocated_ptrISaISt23_Sp_counted_ptr_inplaceIN4core2gl11VertexArrayESaIvELN9__gnu_cxx12_Lock_policyE2EEEEC2ERS8_PS7_ W
_ZNSt15__allocated_ptrISaISt23_Sp_counted_ptr_inplaceIN4core2gl11VertexArrayESaIvELN9__gnu_cxx12_Lock_policyE2EEEED1Ev W
_ZNSt15__allocated_ptrISaISt23_Sp_counted_ptr_inplaceIN4core2gl11VertexArrayESaIvELN9__gnu_cxx12_Lock_policyE2EEEED2Ev W
_ZNSt15__allocated_ptrISaISt23_Sp_counted_ptr_inplaceIN4core2gl12VertexBufferESaIvELN9__gnu_cxx12_Lock_policyE2EEEE3getEv W
_ZNSt15__allocated_ptrISaISt23_Sp_counted_ptr_inplaceIN4core2gl12VertexBufferESaIvELN9__gnu_cxx12_Lock_policyE2EEEEaSEDn W
_ZNSt15__allocated_ptrISaISt23_Sp_counted_ptr_inplaceIN4core2gl12VertexBufferESaIvELN9__gnu_cxx12_Lock_policyE2EEEEC1ERS8_PS7_ W
_ZNSt15__allocated_ptrISaISt23_Sp_counted_ptr_inplaceIN4core2gl12VertexBufferESaIvELN9__gnu_cxx12_Lock_policyE2EEEEC2ERS8_PS7_ W
_ZNSt15__allocated_ptrISaISt23_Sp_counted_ptr_inplaceIN4core2gl12VertexBufferESaIvELN9__gnu_cxx12_Lock_policyE2EEEED1Ev W
_ZNSt15__allocated_ptrISaISt23_Sp_counted_ptr_inplaceIN4core2gl12VertexBufferESaIvELN9__gnu_cxx12_Lock_policyE2EEEED2Ev W
_ZNSt15__new_allocatorIcE10deallocateEPcm W
_ZNSt15__new_allocatorIcE8allocateEmPKv W
_ZNSt15__new_allocatorIjE10deallocateEPjm W
_ZNSt15__new_allocatorIjE8allocateEmPKv W
_ZNSt15__new_allocatorIjEC1Ev W
_ZNSt15__new_allocatorIjEC2Ev W
_ZNSt15__new_allocatorISt23_Sp_counted_ptr_inplaceIN4core2gl11VertexArrayESaIvELN9__gnu_cxx12_Lock_policyE2EEE10deallocateEPS7_m W
_ZNSt15__new_allocatorISt23_Sp_counted_ptr_inplaceIN4core2gl11VertexArrayESaIvELN9__gnu_cxx12_Lock_policyE2EEE8allocateEmPKv W
_ZNSt15__new_allocatorISt23_Sp_counted_ptr_inplaceIN4core2gl11VertexArrayESaIvELN9__gnu_cxx12_Lock_policyE2EEEC1Ev W
_ZNSt15__new_allocatorISt23_Sp_counted_ptr_inplaceIN4core2gl11VertexArrayESaIvELN9__gnu_cxx12_Lock_policyE2EEEC2Ev W
_ZNSt15__new_allocatorISt23_Sp_counted_ptr_inplaceIN4core2gl12VertexBufferESaIvELN9__gnu_cxx12_Lock_policyE2EEE10deallocateEPS7_m W
_ZNSt15__new_allocatorISt23_Sp_counted_ptr_inplaceIN4core2gl12VertexBufferESaIvELN9__gnu_cxx12_Lock_policyE2EEE8allocateEmPKv W
_ZNSt15__new_allocatorISt23_Sp_counted_ptr_inplaceIN4core2gl12VertexBufferESaIvELN9__gnu_cxx12_Lock_policyE2EEEC1Ev W
_ZNSt15__new_allocatorISt23_Sp_counted_ptr_inplaceIN4core2gl12VertexBufferESaIvELN9__gnu_cxx12_Lock_policyE2EEEC2Ev W
_ZNSt15__uniq_ptr_implINSt10filesystem7__cxx114path5_List5_ImplENS3_13_Impl_deleterEE10_M_deleterEv W
_ZNSt15__uniq_ptr_implINSt10filesystem7__cxx114path5_List5_ImplENS3_13_Impl_deleterEE6_M_ptrEv W
_ZNSt16allocator_traitsISaIcEE10deallocateERS0_Pcm W
_ZNSt16allocator_traitsISaIcEE37select_on_container_copy_constructionERKS0_ W
_ZNSt16allocator_traitsISaIcEE8allocateERS0_m W
_ZNSt16allocator_traitsISaIcEE8max_sizeERKS0_ W
_ZNSt16allocator_traitsISaIjEE10deallocateERS0_Pjm W
_ZNSt16allocator_traitsISaIjEE7destroyIjEEvRS0_PT_ W
_ZNSt16allocator_traitsISaIjEE8allocateERS0_m W
_ZNSt16allocator_traitsISaIjEE8max_sizeERKS0_ W
_ZNSt16allocator_traitsISaIjEE9constructIjJjEEEvRS0_PT_DpOT0_ W
_ZNSt16allocator_traitsISaISt23_Sp_counted_ptr_inplaceIN4core2gl11VertexArrayESaIvELN9__gnu_cxx12_Lock_policyE2EEEE10deallocateERS8_PS7_m W
_ZNSt16allocator_traitsISaISt23_Sp_counted_ptr_inplaceIN4core2gl11VertexArrayESaIvELN9__gnu_cxx12_Lock_policyE2EEEE8allocateERS8_m W
_ZNSt16allocator_traitsISaISt23_Sp_counted_ptr_inplaceIN4core2gl12VertexBufferESaIvELN9__gnu_cxx12_Lock_policyE2EEEE10deallocateERS8_PS7_m W
_ZNSt16allocator_traitsISaISt23_Sp_counted_ptr_inplaceIN4core2gl12VertexBufferESaIvELN9__gnu_cxx12_Lock_policyE2EEEE8allocateERS8_m W
_ZNSt16allocator_traitsISaIvEE7destroyIN4core2gl11VertexArrayEEEvRS0_PT_ W
_ZNSt16allocator_traitsISaIvEE7destroyIN4core2gl12VertexBufferEEEvRS0_PT_ W
_ZNSt16allocator_traitsISaIvEE9constructIN4core2gl11VertexArrayEJEEEvRS0_PT_DpOT0_ W
_ZNSt16allocator_traitsISaIvEE9constructIN4core2gl12VertexBufferEJiEEEvRS0_PT_DpOT0_ W
_ZNSt16_Sp_counted_baseILN9__gnu_cxx12_Lock_policyE2EE10_M_destroyEv W
_ZNSt16_Sp_counted_baseILN9__gnu_cxx12_Lock_policyE2EE10_M_releaseEv W
_ZNSt16_Sp_counted_baseILN9__gnu_cxx12_Lock_policyE2EE19_M_release_last_useEv W
_ZNSt16_Sp_counted_baseILN9__gnu_cxx12_Lock_policyE2EE24_M_release_last_use_coldEv W
_ZNSt16_Sp_counted_baseILN9__gnu_cxx12_Lock_policyE2EEC1Ev W
_ZNSt16_Sp_counted_baseILN9__gnu_cxx12_Lock_policyE2EEC2Ev W
_ZNSt16_Sp_counted_baseILN9__gnu_cxx12_Lock_policyE2EED0Ev W
_ZNSt16_Sp_counted_baseILN9__gnu_cxx12_Lock_policyE2EED1Ev W
_ZNSt16_Sp_counted_baseILN9__gnu_cxx12_Lock_policyE2EED2Ev W
_ZNSt17basic_string_viewIcSt11char_traitsIcEEC1EPKc W
_ZNSt17basic_string_viewIcSt11char_traitsIcEEC2EPKc W
_ZNSt19__ptr_traits_ptr_toIPccLb0EE10pointer_toERc W
_ZNSt19__ptr_traits_ptr_toIPKcS0_Lb0EE10pointer_toERS0_ W
_ZNSt19_Sp_make_shared_tag5_S_tiEv W
_ZNSt23mersenne_twister_engineImLm32ELm624ELm397ELm31ELm2567483615ELm11ELm4294967295ELm7ELm2636928640ELm15ELm4022730752ELm18ELm1812433253EE11_M_gen_randEv W
_ZNSt23mersenne_twister_engineImLm32ELm624ELm397ELm31ELm2567483615ELm11ELm4294967295ELm7ELm2636928640ELm15ELm4022730752ELm18ELm1812433253EE3minEv W
_ZNSt23mersenne_twister_engineImLm32ELm624ELm397ELm31ELm2567483615ELm11ELm4294967295ELm7ELm2636928640ELm15ELm4022730752ELm18ELm1812433253EE4seedEm W
_ZNSt23mersenne_twister_engineImLm32ELm624ELm397ELm31ELm2567483615ELm11ELm4294967295ELm7ELm2636928640ELm15ELm4022730752ELm18ELm1812433253EEC1Em W
_ZNSt23mersenne_twister_engineImLm32ELm624ELm397ELm31ELm2567483615ELm11ELm4294967295ELm7ELm2636928640ELm15ELm4022730752ELm18ELm1812433253EEC1Ev W
_ZNSt23mersenne_twister_engineImLm32ELm624ELm397ELm31ELm2567483615ELm11ELm4294967295ELm7ELm2636928640ELm15ELm4022730752ELm18ELm1812433253EEC2Em W
_ZNSt23mersenne_twister_engineImLm32ELm624ELm397ELm31ELm2567483615ELm11ELm4294967295ELm7ELm2636928640ELm15ELm4022730752ELm18ELm1812433253EEC2Ev W
_ZNSt23mersenne_twister_engineImLm32ELm624ELm397ELm31ELm2567483615ELm11ELm4294967295ELm7ELm2636928640ELm15ELm4022730752ELm18ELm1812433253EEclEv W
_ZNSt23_Sp_counted_ptr_inplaceIN4core2gl11VertexArrayESaIvELN9__gnu_cxx12_Lock_policyE2EE10_M_destroyEv W
_ZNSt23_Sp_counted_ptr_inplaceIN4core2gl11VertexArrayESaIvELN9__gnu_cxx12_Lock_policyE2EE10_M_disposeEv W
_ZNSt23_Sp_counted_ptr_inplaceIN4core2gl11VertexArrayESaIvELN9__gnu_cxx12_Lock_policyE2EE14_M_get_deleterERKSt9type_info W
_ZNSt23_Sp_counted_ptr_inplaceIN4core2gl11VertexArrayESaIvELN9__gnu_cxx12_Lock_policyE2EE5_Impl8_M_allocEv W
_ZNSt23_Sp_counted_ptr_inplaceIN4core2gl11VertexArrayESaIvELN9__gnu_cxx12_Lock_policyE2EE5_ImplC1ES3_ W
_ZNSt23_Sp_counted_ptr_inplaceIN4core2gl11VertexArrayESaIvELN9__gnu_cxx12_Lock_policyE2EE5_ImplC2ES3_ W
_ZNSt23_Sp_counted_ptr_inplaceIN4core2gl11VertexArrayESaIvELN9__gnu_cxx12_Lock_policyE2EE6_M_ptrEv W
_ZNSt23_Sp_counted_ptr_inplaceIN4core2gl11VertexArrayESaIvELN9__gnu_cxx12_Lock_policyE2EEC1IJEEES3_DpOT_ W
_ZNSt23_Sp_counted_ptr_inplaceIN4core2gl11VertexArrayESaIvELN9__gnu_cxx12_Lock_policyE2EEC2IJEEES3_DpOT_ W
_ZNSt23_Sp_counted_ptr_inplaceIN4core2gl11VertexArrayESaIvELN9__gnu_cxx12_Lock_policyE2EED0Ev W
_ZNSt23_Sp_counted_ptr_inplaceIN4core2gl11VertexArrayESaIvELN9__gnu_cxx12_Lock_policyE2EED1Ev W
_ZNSt23_Sp_counted_ptr_inplaceIN4core2gl11VertexArrayESaIvELN9__gnu_cxx12_Lock_policyE2EED2Ev W
_ZNSt23_Sp_counted_ptr_inplaceIN4core2gl12VertexBufferESaIvELN9__gnu_cxx12_Lock_policyE2EE10_M_destroyEv W
_ZNSt23_Sp_counted_ptr_inplaceIN4core2gl12VertexBufferESaIvELN9__gnu_cxx12_Lock_policyE2EE10_M_disposeEv W
_ZNSt23_Sp_counted_ptr_inplaceIN4core2gl12VertexBufferESaIvELN9__gnu_cxx12_Lock_policyE2EE14_M_get_deleterERKSt9type_info W
_ZNSt23_Sp_counted_ptr_inplaceIN4core2gl12VertexBufferESaIvELN9__gnu_cxx12_Lock_policyE2EE5_Impl8_M_allocEv W
_ZNSt23_Sp_counted_ptr_inplaceIN4core2gl12VertexBufferESaIvELN9__gnu_cxx12_Lock_policyE2EE5_ImplC1ES3_ W
_ZNSt23_Sp_counted_ptr_inplaceIN4core2gl12VertexBufferESaIvELN9__gnu_cxx12_Lock_policyE2EE5_ImplC2ES3_ W
_ZNSt23_Sp_counted_ptr_inplaceIN4core2gl12VertexBufferESaIvELN9__gnu_cxx12_Lock_policyE2EE6_M_ptrEv W
_ZNSt23_Sp_counted_ptr_inplaceIN4core2gl12VertexBufferESaIvELN9__gnu_cxx12_Lock_policyE2EEC1IJiEEES3_DpOT_ W
_ZNSt23_Sp_counted_ptr_inplaceIN4core2gl12VertexBufferESaIvELN9__gnu_cxx12_Lock_policyE2EEC2IJiEEES3_DpOT_ W
_ZNSt23_Sp_counted_ptr_inplaceIN4core2gl12VertexBufferESaIvELN9__gnu_cxx12_Lock_policyE2EED0Ev W
_ZNSt23_Sp_counted_ptr_inplaceIN4core2gl12VertexBufferESaIvELN9__gnu_cxx12_Lock_policyE2EED1Ev W
_ZNSt23_Sp_counted_ptr_inplaceIN4core2gl12VertexBufferESaIvELN9__gnu_cxx12_Lock_policyE2EED2Ev W
_ZNSt24uniform_int_distributionIjE10param_typeC1Ejj W
_ZNSt24uniform_int_distributionIjE10param_typeC2Ejj W
_ZNSt24uniform_int_distributionIjE5_S_ndImSt23mersenne_twister_engineImLm32ELm624ELm397ELm31ELm2567483615ELm11ELm4294967295ELm7ELm2636928640ELm15ELm4022730752ELm18ELm1812433253EEjEET1_RT0_S4_ W
_ZNSt24uniform_int_distributionIjEC1Ejj W
_ZNSt24uniform_int_distributionIjEC2Ejj W
_ZNSt24uniform_int_distributionIjEclISt23mersenne_twister_engineImLm32ELm624ELm397ELm31ELm2567483615ELm11ELm4294967295ELm7ELm2636928640ELm15ELm4022730752ELm18ELm1812433253EEEEjRT_ W
_ZNSt24uniform_int_distributionIjEclISt23mersenne_twister_engineImLm32ELm624ELm397ELm31ELm2567483615ELm11ELm4294967295ELm7ELm2636928640ELm15ELm4022730752ELm18ELm1812433253EEEEjRT_RKNS0_10param_typeE W
_ZNSt24uniform_int_distributionImE10param_typeC1Emm W
_ZNSt24uniform_int_distributionImE10param_typeC2Emm W
_ZNSt24uniform_int_distributionImE5_S_ndImSt23mersenne_twister_engineImLm32ELm624ELm397ELm31ELm2567483615ELm11ELm4294967295ELm7ELm2636928640ELm15ELm4022730752ELm18ELm1812433253EEjEET1_RT0_S4_ W
_ZNSt24uniform_int_distributionImEC1Emm W
_ZNSt24uniform_int_distributionImEC2Emm W
_ZNSt24uniform_int_distributionImEclISt23mersenne_twister_engineImLm32ELm624ELm397ELm31ELm2567483615ELm11ELm4294967295ELm7ELm2636928640ELm15ELm4022730752ELm18ELm1812433253EEEEmRT_ W
_ZNSt24uniform_int_distributionImEclISt23mersenne_twister_engineImLm32ELm624ELm397ELm31ELm2567483615ELm11ELm4294967295ELm7ELm2636928640ELm15ELm4022730752ELm18ELm1812433253EEEEmRT_RKNS0_10param_typeE W
_ZNSt25uniform_real_distributionIdE10param_typeC1Edd W
_ZNSt25uniform_real_distributionIdE10param_typeC2Edd W
_ZNSt25uniform_real_distributionIdEC1Edd W
_ZNSt25uniform_real_distributionIdEC2Edd W
_ZNSt25uniform_real_distributionIdEclISt23mersenne_twister_engineImLm32ELm624ELm397ELm31ELm2567483615ELm11ELm4294967295ELm7ELm2636928640ELm15ELm4022730752ELm18ELm1812433253EEEEdRT_ W
_ZNSt25uniform_real_distributionIdEclISt23mersenne_twister_engineImLm32ELm624ELm397ELm31ELm2567483615ELm11ELm4294967295ELm7ELm2636928640ELm15ELm4022730752ELm18ELm1812433253EEEEdRT_RKNS0_10param_typeE W
_ZNSt25uniform_real_distributionIfE10param_typeC1Eff W
_ZNSt25uniform_real_distributionIfE10param_typeC2Eff W
_ZNSt25uniform_real_distributionIfEC1Eff W
_ZNSt25uniform_real_distributionIfEC2Eff W
_ZNSt25uniform_real_distributionIfEclISt23mersenne_twister_engineImLm32ELm624ELm397ELm31ELm2567483615ELm11ELm4294967295ELm7ELm2636928640ELm15ELm4022730752ELm18ELm1812433253EEEEfRT_ W
_ZNSt25uniform_real_distributionIfEclISt23mersenne_twister_engineImLm32ELm624ELm397ELm31ELm2567483615ELm11ELm4294967295ELm7ELm2636928640ELm15ELm4022730752ELm18ELm1812433253EEEEfRT_RKNS0_10param_typeE W
_ZNSt27__uninitialized_default_n_1ILb1EE18__uninit_default_nIPcmEET_S3_T0_ W
_ZNSt6vectorIcSaIcEE11_S_max_sizeERKS0_ W
_ZNSt6vectorIcSaIcEE17_S_check_init_lenEmRKS0_ W
_ZNSt6vectorIcSaIcEE21_M_default_initializeEm W
_ZNSt6vectorIcSaIcEEC1EmRKS0_ W
_ZNSt6vectorIcSaIcEEC2EmRKS0_ W
_ZNSt6vectorIcSaIcEED1Ev W
_ZNSt6vectorIcSaIcEED2Ev W
_ZNSt6vectorIcSaIcEEixEm W
_ZNSt6vectorIjSaIjEE11_S_max_sizeERKS0_ W
_ZNSt6vectorIjSaIjEE11_S_relocateEPjS2_S2_RS0_ W
_ZNSt6vectorIjSaIjEE12emplace_backIJjEEERjDpOT_ W
_ZNSt6vectorIjSaIjEE17_M_realloc_insertIJjEEEvN9__gnu_cxx17__normal_iteratorIPjS1_EEDpOT_ W
_ZNSt6vectorIjSaIjEE3endEv W
_ZNSt6vectorIjSaIjEE4backEv W
_ZNSt6vectorIjSaIjEE5beginEv W
_ZNSt6vectorIjSaIjEE5eraseEN9__gnu_cxx17__normal_iteratorIPKjS1_EE W
_ZNSt6vectorIjSaIjEE8_M_eraseEN9__gnu_cxx17__normal_iteratorIPjS1_EE W
_ZNSt6vectorIjSaIjEE9push_backEOj W
_ZNSt6vectorIjSaIjEEC1Ev W
_ZNSt6vectorIjSaIjEEC2Ev W
_ZNSt6vectorIjSaIjEED1Ev W
_ZNSt6vectorIjSaIjEED2Ev W
_ZNSt7__cxx1112basic_stringIcSt11char_traitsIcESaIcEE10_M_destroyEm W
_ZNSt7__cxx1112basic_stringIcSt11char_traitsIcESaIcEE10_M_disposeEv W
_ZNSt7__cxx1112basic_stringIcSt11char_traitsIcESaIcEE11_M_capacityEm W
_ZNSt7__cxx1112basic_stringIcSt11char_traitsIcESaIcEE12_Alloc_hiderC1EPcOS3_ W
_ZNSt7__cxx1112basic_stringIcSt11char_traitsIcESaIcEE12_Alloc_hiderC1EPcRKS3_ W
_ZNSt7__cxx1112basic_stringIcSt11char_traitsIcESaIcEE12_Alloc_hiderC2EPcOS3_ W
_ZNSt7__cxx1112basic_stringIcSt11char_traitsIcESaIcEE12_Alloc_hiderC2EPcRKS3_ W
_ZNSt7__cxx1112basic_stringIcSt11char_traitsIcESaIcEE12_Alloc_hiderD1Ev W
_ZNSt7__cxx1112basic_stringIcSt11char_traitsIcESaIcEE12_Alloc_hiderD2Ev W
_ZNSt7__cxx1112basic_stringIcSt11char_traitsIcESaIcEE12_M_constructIPcEEvT_S7_St20forward_iterator_tag W
_ZNSt7__cxx1112basic_stringIcSt11char_traitsIcESaIcEE12_M_constructIPKcEEvT_S8_St20forward_iterator_tag W
_ZNSt7__cxx1112basic_stringIcSt11char_traitsIcESaIcEE12__sv_wrapperC1ESt17basic_string_viewIcS2_E W
_ZNSt7__cxx1112basic_stringIcSt11char_traitsIcESaIcEE12__sv_wrapperC2ESt17basic_string_viewIcS2_E W
_ZNSt7__cxx1112basic_stringIcSt11char_traitsIcESaIcEE13_M_local_dataEv W
_ZNSt7__cxx1112basic_stringIcSt11char_traitsIcESaIcEE13_M_set_lengthEm W
_ZNSt7__cxx1112basic_stringIcSt11char_traitsIcESaIcEE13_S_copy_charsEPcPKcS7_ W
_ZNSt7__cxx1112basic_stringIcSt11char_traitsIcESaIcEE13_S_copy_charsEPcS5_S5_ W
_ZNSt7__cxx1112basic_stringIcSt11char_traitsIcESaIcEE16_M_get_allocatorEv W
_ZNSt7__cxx1112basic_stringIcSt11char_traitsIcESaIcEE17_S_to_string_viewESt17basic_string_viewIcS2_E W
_ZNSt7__cxx1112basic_stringIcSt11char_traitsIcESaIcEE5clearEv W
_ZNSt7__cxx1112basic_stringIcSt11char_traitsIcESaIcEE6assignERKS4_ W
_ZNSt7__cxx1112basic_stringIcSt11char_traitsIcESaIcEE7_M_dataEPc W
_ZNSt7__cxx1112basic_stringIcSt11char_traitsIcESaIcEE7_S_copyEPcPKcm W
_ZNSt7__cxx1112basic_stringIcSt11char_traitsIcESaIcEE9_M_assignERKS4_ W
_ZNSt7__cxx1112basic_stringIcSt11char_traitsIcESaIcEE9_M_createERmm W
_ZNSt7__cxx1112basic_stringIcSt11char_traitsIcESaIcEE9_M_lengthEm W
_ZNSt7__cxx1112basic_stringIcSt11char_traitsIcESaIcEEaSEOS4_ W
_ZNSt7__cxx1112basic_stringIcSt11char_traitsIcESaIcEEaSERKS4_ W
_ZNSt7__cxx1112basic_stringIcSt11char_traitsIcESaIcEEC1ENS4_12__sv_wrapperERKS3_ W
_ZNSt7__cxx1112basic_stringIcSt11char_traitsIcESaIcEEC1EPKcmRKS3_ W
_ZNSt7__cxx1112basic_stringIcSt11char_traitsIcESaIcEEC1ERKS4_ W
_ZNSt7__cxx1112basic_stringIcSt11char_traitsIcESaIcEEC1Ev W
_ZNSt7__cxx1112basic_stringIcSt11char_traitsIcESaIcEEC1IS3_EEPKcRKS3_ W
_ZNSt7__cxx1112basic_stringIcSt11char_traitsIcESaIcEEC1ISt17basic_string_viewIcS2_EvEERKT_RKS3_ W
_ZNSt7__cxx1112basic_stringIcSt11char_traitsIcESaIcEEC2ENS4_12__sv_wrapperERKS3_ W
_ZNSt7__cxx1112basic_stringIcSt11char_traitsIcESaIcEEC2EPKcmRKS3_ W
_ZNSt7__cxx1112basic_stringIcSt11char_traitsIcESaIcEEC2ERKS4_ W
_ZNSt7__cxx1112basic_stringIcSt11char_traitsIcESaIcEEC2Ev W
_ZNSt7__cxx1112basic_stringIcSt11char_traitsIcESaIcEEC2IS3_EEPKcRKS3_ W
_ZNSt7__cxx1112basic_stringIcSt11char_traitsIcESaIcEEC2ISt17basic_string_viewIcS2_EvEERKT_RKS3_ W
_ZNSt7__cxx1112basic_stringIcSt11char_traitsIcESaIcEED1Ev W
_ZNSt7__cxx1112basic_stringIcSt11char_traitsIcESaIcEED2Ev W
_ZNSt8__detail4_ModImLm4294967296ELm1ELm0ELb1ELb1EE6__calcEm W
_ZNSt8__detail4_ModImLm624ELm1ELm0ELb1ELb1EE6__calcEm W
_ZNSt8__detail5__modImLm4294967296ELm1ELm0EEET_S1_ W
_ZNSt8__detail5__modImLm624ELm1ELm0EEET_S1_ W
_ZNSt8__detail8_AdaptorISt23mersenne_twister_engineImLm32ELm624ELm397ELm31ELm2567483615ELm11ELm4294967295ELm7ELm2636928640ELm15ELm4022730752ELm18ELm1812433253EEdEC1ERS2_ W
_ZNSt8__detail8_AdaptorISt23mersenne_twister_engineImLm32ELm624ELm397ELm31ELm2567483615ELm11ELm4294967295ELm7ELm2636928640ELm15ELm4022730752ELm18ELm1812433253EEdEC2ERS2_ W
_ZNSt8__detail8_AdaptorISt23mersenne_twister_engineImLm32ELm624ELm397ELm31ELm2567483615ELm11ELm4294967295ELm7ELm2636928640ELm15ELm4022730752ELm18ELm1812433253EEdEclEv W
_ZNSt8__detail8_AdaptorISt23mersenne_twister_engineImLm32ELm624ELm397ELm31ELm2567483615ELm11ELm4294967295ELm7ELm2636928640ELm15ELm4022730752ELm18ELm1812433253EEfEC1ERS2_ W
_ZNSt8__detail8_AdaptorISt23mersenne_twister_engineImLm32ELm624ELm397ELm31ELm2567483615ELm11ELm4294967295ELm7ELm2636928640ELm15ELm4022730752ELm18ELm1812433253EEfEC2ERS2_ W
_ZNSt8__detail8_AdaptorISt23mersenne_twister_engineImLm32ELm624ELm397ELm31ELm2567483615ELm11ELm4294967295ELm7ELm2636928640ELm15ELm4022730752ELm18ELm1812433253EEfEclEv W
_ZnwmPv W
_ZSt10_ConstructIcJEEvPT_DpOT0_ W
_ZSt10_ConstructIN4core2gl11VertexArrayEJEEvPT_DpOT0_ W
_ZSt10_ConstructIN4core2gl12VertexBufferEJiEEvPT_DpOT0_ W
_ZSt10destroy_atIcEvPT_ W
_ZSt10destroy_atIjEvPT_ W
_ZSt10destroy_atIN4core2gl11VertexArrayEEvPT_ W
_ZSt10destroy_atIN4core2gl12VertexBufferEEvPT_ W
_ZSt10__distanceIPcENSt15iterator_traitsIT_E15difference_typeES2_S2_St26random_access_iterator_tag W
_ZSt10__distanceIPKcENSt15iterator_traitsIT_E15difference_typeES3_S3_St26random_access_iterator_tag W
_ZSt10__fill_n_aIPcmcET_S1_T0_RKT1_St26random_access_iterator_tag W
_ZSt11__addressofIcEPT_RS0_ W
_ZSt11__addressofIjEPT_RS0_ W
_ZSt11__addressofIKcEPT_RS1_ W
_ZSt11__addressofIKNSt7__cxx1112basic_stringIcSt11char_traitsIcESaIcEEEEPT_RS7_ W
_ZSt11__addressofINSt7__cxx1112basic_stringIcSt11char_traitsIcESaIcEEEEPT_RS6_ W
_ZSt11__addressofISaISt23_Sp_counted_ptr_inplaceIN4core2gl11VertexArrayESaIvELN9__gnu_cxx12_Lock_policyE2EEEEPT_RS9_ W
_ZSt11__addressofISaISt23_Sp_counted_ptr_inplaceIN4core2gl12VertexBufferESaIvELN9__gnu_cxx12_Lock_policyE2EEEEPT_RS9_ W
_ZSt11make_sharedIN4core2gl11VertexArrayEJEESt10shared_ptrIT_EDpOT0_ W
_ZSt11make_sharedIN4core2gl12VertexBufferEJiEESt10shared_ptrIT_EDpOT0_ W
_ZSt12construct_atIcJEEDTgsnwcvPvLi0E_T_pispcl7declvalIT0_EEEEPS1_DpOS2_ W
_ZSt12construct_atIcJRKcEEDTgsnwcvPvLi0E_T_pispcl7declvalIT0_EEEEPS3_DpOS4_ W
_ZSt12construct_atIjJjEEDTgsnwcvPvLi0E_T_pispcl7declvalIT0_EEEEPS1_DpOS2_ W
_ZSt12construct_atIN4core2gl11VertexArrayEJEEDTgsnwcvPvLi0E_T_pispcl7declvalIT0_EEEEPS4_DpOS5_ W
_ZSt12construct_atIN4core2gl12VertexBufferEJiEEDTgsnwcvPvLi0E_T_pispcl7declvalIT0_EEEEPS4_DpOS5_ W
_ZSt12__get_helperILm0EPNSt10filesystem7__cxx114path5_List5_ImplEJNS3_13_Impl_deleterEEERT0_RSt11_Tuple_implIXT_EJS7_DpT1_EE W
_ZSt12__get_helperILm1ENSt10filesystem7__cxx114path5_List13_Impl_deleterEJEERT0_RSt11_Tuple_implIXT_EJS5_DpT1_EE W
_ZSt12__miter_baseIN9__gnu_cxx17__normal_iteratorIPjSt6vectorIjSaIjEEEEET_S7_ W
_ZSt12__niter_baseIPjET_S1_ W
_ZSt12__niter_baseIPjSt6vectorIjSaIjEEET_N9__gnu_cxx17__normal_iteratorIS4_T0_EE W
_ZSt12__niter_wrapIN9__gnu_cxx17__normal_iteratorIPjSt6vectorIjSaIjEEEES2_ET_S7_T0_ W
_ZSt12__relocate_aIPjS0_SaIjEET0_T_S3_S2_RT1_ W
_ZSt12__to_addressISt23_Sp_counted_ptr_inplaceIN4core2gl11VertexArrayESaIvELN9__gnu_cxx12_Lock_policyE2EEEPT_S9_ W
_ZSt12__to_addressISt23_Sp_counted_ptr_inplaceIN4core2gl12VertexBufferESaIvELN9__gnu_cxx12_Lock_policyE2EEEPT_S9_ W
_ZSt13__copy_move_aILb1EN9__gnu_cxx17__normal_iteratorIPjSt6vectorIjSaIjEEEES6_ET1_T0_S8_S7_ W
_ZSt14__copy_move_a1ILb1EPjS0_ET1_T0_S2_S1_ W
_ZSt14__copy_move_a2ILb1EPjS0_ET1_T0_S2_S1_ W
_ZSt14__relocate_a_1IjjENSt9enable_ifIXsrSt24__is_bitwise_relocatableIT_vE5valueEPS2_E4typeES4_S4_S4_RSaIT0_E W
_ZSt14__relocate_a_1IPjN9__gnu_cxx17__normal_iteratorIS0_vEESaIjEET0_T_S6_S5_RT1_ W
_ZSt15__alloc_on_copyISaIcEEvRT_RKS1_ W
_ZSt15__alloc_on_moveISaIcEEvRT_S2_ W
_ZSt17__size_to_integerm W
_ZSt18__allocate_guardedISaISt23_Sp_counted_ptr_inplaceIN4core2gl11VertexArrayESaIvELN9__gnu_cxx12_Lock_policyE2EEEESt15__allocated_ptrIT_ERSA_ W
_ZSt18__allocate_guardedISaISt23_Sp_counted_ptr_inplaceIN4core2gl12VertexBufferESaIvELN9__gnu_cxx12_Lock_policyE2EEEESt15__allocated_ptrIT_ERSA_ W
_ZSt18generate_canonicalIdLm53ESt23mersenne_twister_engineImLm32ELm624ELm397ELm31ELm2567483615ELm11ELm4294967295ELm7ELm2636928640ELm15ELm4022730752ELm18ELm1812433253EEET_RT1_ W
_ZSt18generate_canonicalIfLm24ESt23mersenne_twister_engineImLm32ELm624ELm397ELm31ELm2567483615ELm11ELm4294967295ELm7ELm2636928640ELm15ELm4022730752ELm18ELm1812433253EEET_RT1_ W
_ZSt19__iterator_categoryIPcENSt15iterator_traitsIT_E17iterator_categoryERKS2_ W
_ZSt19__iterator_categoryIPKcENSt15iterator_traitsIT_E17iterator_categoryERKS3_ W
_ZSt19__relocate_object_aIjjSaIjEEvPT_PT0_RT1_ W
_ZSt21is_constant_evaluatedv W
_ZSt23__is_constant_evaluatedv W
_ZSt25__uninitialized_default_nIPcmET_S1_T0_ W
_ZSt27__uninitialized_default_n_aIPcmcET_S1_T0_RSaIT1_E W
_ZSt3cosf W
_ZSt3getILm0EJPNSt10filesystem7__cxx114path5_List5_ImplENS3_13_Impl_deleterEEERNSt13tuple_elementIXT_ESt5tupleIJDpT0_EEE4typeERSB_ W
_ZSt3getILm1EJPNSt10filesystem7__cxx114path5_List5_ImplENS3_13_Impl_deleterEEERNSt13tuple_elementIXT_ESt5tupleIJDpT0_EEE4typeERSB_ W
_ZSt3maxImERKT_S2_S2_ W
_ZSt3minImERKT_S2_S2_ W
_ZSt3powff W
_ZSt3sinf W
_ZSt3tanf W
_ZSt4moveIN9__gnu_cxx17__normal_iteratorIPjSt6vectorIjSaIjEEEES6_ET0_T_S8_S7_ W
_ZSt4moveIRjEONSt16remove_referenceIT_E4typeEOS2_ W
_ZSt4moveIRPN4core2gl11VertexArrayEEONSt16remove_referenceIT_E4typeEOS6_ W
_ZSt4moveIRPN4core2gl12VertexBufferEEONSt16remove_referenceIT_E4typeEOS6_ W
_ZSt4moveIRPNSt10filesystem7__cxx114path5_List5_ImplEEONSt16remove_referenceIT_E4typeEOS8_ W
_ZSt4moveIRSaIcEEONSt16remove_referenceIT_E4typeEOS3_ W
_ZSt4moveIRSt10shared_ptrIN4core2gl11VertexArrayEEEONSt16remove_referenceIT_E4typeEOS7_ W
_ZSt4moveIRSt10shared_ptrIN4core2gl12VertexBufferEEEONSt16remove_referenceIT_E4typeEOS7_ W
_ZSt4moveIRSt12__shared_ptrIN4core2gl11VertexArrayELN9__gnu_cxx12_Lock_policyE2EEEONSt16remove_referenceIT_E4typeEOS9_ W
_ZSt4moveIRSt12__shared_ptrIN4core2gl12VertexBufferELN9__gnu_cxx12_Lock_policyE2EEEONSt16remove_referenceIT_E4typeEOS9_ W
_ZSt4sqrtf W
_ZSt4swapIPN4core2gl11VertexArrayEENSt9enable_ifIXsrSt6__and_IJSt6__not_ISt15__is_tuple_likeIT_EESt21is_move_constructibleIS8_ESt18is_move_assignableIS8_EEE5valueEvE4typeERS8_SI_ W
_ZSt4swapIPN4core2gl12VertexBufferEENSt9enable_ifIXsrSt6__and_IJSt6__not_ISt15__is_tuple_likeIT_EESt21is_move_constructibleIS8_ESt18is_move_assignableIS8_EEE5valueEvE4typeERS8_SI_ W
_ZSt5frexpfPi W
_ZSt5ldexpfi W
_ZSt6fill_nIPcmcET_S1_T0_RKT1_ W
_ZSt7forwardIiEOT_RNSt16remove_referenceIS0_E4typeE W
_ZSt7forwardIjEOT_RNSt16remove_referenceIS0_E4typeE W
_ZSt7forwardIRiEOT_RNSt16remove_referenceIS1_E4typeE W
_ZSt7forwardIRjEOT_RNSt16remove_referenceIS1_E4typeE W
_ZSt7forwardIRKcEOT_RNSt16remove_referenceIS2_E4typeE W
_ZSt7forwardIRPcEOT_RNSt16remove_referenceIS2_E4typeE W
_ZSt7forwardIRPKcEOT_RNSt16remove_referenceIS3_E4typeE W
_ZSt8_DestroyIcEvPT_ W
_ZSt8_DestroyIjEvPT_ W
_ZSt8_DestroyIN4core2gl11VertexArrayEEvPT_ W
_ZSt8_DestroyIN4core2gl12VertexBufferEEvPT_ W
_ZSt8_DestroyIPccEvT_S1_RSaIT0_E W
_ZSt8_DestroyIPcEvT_S1_ W
_ZSt8_DestroyIPjEvT_S1_ W
_ZSt8_DestroyIPjjEvT_S1_RSaIT0_E W
_ZSt8distanceIPcENSt15iterator_traitsIT_E15difference_typeES2_S2_ W
_ZSt8distanceIPKcENSt15iterator_traitsIT_E15difference_typeES3_S3_ W
_ZSt8__fill_aIPccEvT_S1_RKT0_ W
_ZSt9addressofIcEPT_RS0_ W
_ZSt9addressofIKcEPT_RS1_ W
_ZSt9__fill_a1IcEN9__gnu_cxx11__enable_ifIXsrSt9__is_byteIT_E7__valueEvE6__typeEPS3_S7_RKS3_ W
_ZSt9nextafterff W
_ZSteqRKSaIcES1_ W
_ZTIN4core2gl11VertexArrayE V
_ZTIN4core2gl12VertexBufferE V
_ZTIN4core2gl14GLObjectWithIDE V
_ZTIN4core2gl16GLObjectWithBindE V
_ZTIN4core5SceneE V
_ZTIN4core8graphics7TextureE V
_ZTISt11_Mutex_baseILN9__gnu_cxx12_Lock_policyE2EE V
_ZTISt16_Sp_counted_baseILN9__gnu_cxx12_Lock_policyE2EE V
_ZTISt19_Sp_make_shared_tag V
_ZTISt23_Sp_counted_ptr_inplaceIN4core2gl11VertexArrayESaIvELN9__gnu_cxx12_Lock_policyE2EE V
_ZTISt23_Sp_counted_ptr_inplaceIN4core2gl12VertexBufferESaIvELN9__gnu_cxx12_Lock_policyE2EE V
_ZTSN4core2gl11VertexArrayE V
_ZTSN4core2gl12VertexBufferE V
_ZTSN4core2gl14GLObjectWithIDE V
_ZTSN4core2gl16GLObjectWithBindE V
_ZTSN4core5SceneE V
_ZTSN4core8graphics7TextureE V
_ZTSSt11_Mutex_baseILN9__gnu_cxx12_Lock_policyE2EE V
_ZTSSt16_Sp_counted_baseILN9__gnu_cxx12_Lock_policyE2EE V
_ZTSSt19_Sp_make_shared_tag V
_ZTSSt23_Sp_counted_ptr_inplaceIN4core2gl11VertexArrayESaIvELN9__gnu_cxx12_Lock_policyE2EE V
_ZTSSt23_Sp_counted_ptr_inplaceIN4core2gl12VertexBufferESaIvELN9__gnu_cxx12_Lock_policyE2EE V
_ZTVN4core2gl11VertexArrayE V
_ZTVN4core2gl12VertexBufferE V
_ZTVN4core2gl16GLObjectWithBindE V
_ZTVN4core5SceneE V
_ZTVN4core8graphics7TextureE V
_ZTVSt16_Sp_counted_baseILN9__gnu_cxx12_Lock_policyE2EE V
_ZTVSt23_Sp_counted_ptr_inplaceIN4core2gl11VertexArrayESaIvELN9__gnu_cxx12_Lock_policyE2EE V
_ZTVSt23_Sp_counted_ptr_inplaceIN4core2gl12VertexBufferESaIvELN9__gnu_cxx12_Lock_policyE2EE V
_ZZNSt19_Sp_make_shared_tag5_S_tiEvE5__tag u
_ZZNSt7__cxx1112basic_stringIcSt11char_traitsIcESaIcEE12_M_constructIPcEEvT_S7_St20forward_iterator_tagEN6_GuardC1EPS4_ W
_ZZNSt7__cxx1112basic_stringIcSt11char_traitsIcESaIcEE12_M_constructIPcEEvT_S7_St20forward_iterator_tagEN6_GuardC2EPS4_ W
_ZZNSt7__cxx1112basic_stringIcSt11char_traitsIcESaIcEE12_M_constructIPcEEvT_S7_St20forward_iterator_tagEN6_GuardD1Ev W
_ZZNSt7__cxx1112basic_stringIcSt11char_traitsIcESaIcEE12_M_constructIPcEEvT_S7_St20forward_iterator_tagEN6_GuardD2Ev W
_ZZNSt7__cxx1112basic_stringIcSt11char_traitsIcESaIcEE12_M_constructIPKcEEvT_S8_St20forward_iterator_tagEN6_GuardC1EPS4_ W
_ZZNSt7__cxx1112basic_stringIcSt11char_traitsIcESaIcEE12_M_constructIPKcEEvT_S8_St20forward_iterator_tagEN6_GuardC2EPS4_ W
_ZZNSt7__cxx1112basic_stringIcSt11char_traitsIcESaIcEE12_M_constructIPKcEEvT_S8_St20forward_iterator_tagEN6_GuardD1Ev W
_ZZNSt7__cxx1112basic_stringIcSt11char_traitsIcESaIcEE12_M_constructIPKcEEvT_S8_St20forward_iterator_tagEN6_GuardD2Ev W
