 0x000000000000000e (SONAME)             soname da biblioteca: [libimgui.so]
GImGui B 8
GImGuiDemoMarkerCallback B 8
GImGuiDemoMarkerCallbackUserData B 8
imgl3wGetProcAddress T
imgl3wInit T
imgl3wInit2 T
imgl3wIsSupported T
imgl3wProcs B 1b0
_Z10ImFileOpenPKcS0_ T
_Z10ImFileReadPvyyP8_IO_FILE T
_Z10ImHashDataPKvmj T
_Z10ImStrnicmpPKcS0_m T
_Z11ImFileCloseP8_IO_FILE T
_Z11ImFileWritePKvyyP8_IO_FILE T
_Z11ImStrdupcpyPcPmPKc T
_Z13ImFileGetSizeP8_IO_FILE T
_Z13ImStrchrRangePKcS0_c T
_Z13ImStreolRangePKcS0_ T
_Z13TableFixFlagsiP11ImGuiWindow W
_Z14ImFormatStringPcmPKcz T
_Z14ImStrSkipBlankPKc T
_Z14ImTriangleAreaRK6ImVec2S1_S1_ W
_Z15ImFormatStringVPcmPKcP13__va_list_tag T
_Z15ImStrTrimBlanksPc T
_Z15ImTextStrToUtf8PciPKtS1_ T
_Z16ImBitArraySetBitPji W
_Z16ImTextCharToUtf8Pcj T
_Z17ImBezierCubicCalcRK6ImVec2S1_S1_S1_f T
_Z17ImBitArrayTestBitPKji W
_Z17ImTextStrFromUtf8PtiPKcS1_PS1_ T
_Z18ImAlphaBlendColorsjj T
_Z18ImBitArrayClearBitPji W
_Z18ImFileLoadToMemoryPKcS0_Pmi T
_Z18ImLineClosestPointRK6ImVec2S1_S1_ T
_Z18ImTextCharFromUtf8PjPKcS1_ T
_Z20ImFontAtlasBuildInitP11ImFontAtlas T
_Z20ImParseFormatFindEndPKc T
_Z21ImBezierQuadraticCalcRK6ImVec2S1_S1_f T
_Z21ImBitArraySetBitRangePjii W
_Z21ImGui_ImplVulkan_InitP25ImGui_ImplVulkan_InitInfoP14VkRenderPass_T T
_Z22ImFontAtlasBuildFinishP11ImFontAtlas T
_Z22ImGui_ImplOpenGL3_InitPKc T
_Z22ImParseFormatFindStartPKc T
_Z22ImParseFormatPrecisionPKci T
_Z22ImTriangleClosestPointRK6ImVec2S1_S1_S1_ T
_Z23ImGui_ImplGlfw_NewFramev T
_Z23ImGui_ImplGlfw_Shutdownv T
_Z23ImGui_ImplSDL2_NewFramev T
_Z23ImGui_ImplSDL2_Shutdownv T
_Z23ImTriangleContainsPointRK6ImVec2S1_S1_S1_ T
_Z24ImTextCountCharsFromUtf8PKcS0_ T
_Z25ImBezierCubicClosestPointRK6ImVec2S1_S1_S1_S1_i T
_Z25ImFontAtlasBuildSetupFontP11ImFontAtlasP6ImFontP12ImFontConfigff T
_Z25ImGetDirQuadrantFromDeltaff T
_Z25ImGui_ImplSDL2_InitForD3DP10SDL_Window T
_Z25ImGui_ImplVulkan_NewFramev T
_Z25ImGui_ImplVulkan_Shutdownv T
_Z26ImGui_ImplGlfw_KeyCallbackP10GLFWwindowiiii T
_Z26ImGui_ImplOpenGL3_NewFramev T
_Z26ImGui_ImplOpenGL3_Shutdownv T
_Z26ImGui_ImplSDLRenderer_InitP12SDL_Renderer T
_Z27ImGui_ImplGlfw_CharCallbackP10GLFWwindowj T
_Z27ImGui_ImplGlfw_InitForOtherP10GLFWwindowb T
_Z27ImGui_ImplSDL2_InitForMetalP10SDL_Window T
_Z27ImGui_ImplSDL2_ProcessEventPK9SDL_Event T
_Z27ImGui_ImplVulkan_AddTextureP11VkSampler_TP13VkImageView_T13VkImageLayout T
_Z27ImTextCountUtf8BytesFromStrPKtS0_ T
_Z27ImTriangleBarycentricCoordsRK6ImVec2S1_S1_S1_RfS2_S2_ T
_Z28ImGui_ImplGlfw_InitForOpenGLP10GLFWwindowb T
_Z28ImGui_ImplGlfw_InitForVulkanP10GLFWwindowb T
_Z28ImGui_ImplSDL2_InitForOpenGLP10SDL_WindowPv T
_Z28ImGui_ImplSDL2_InitForVulkanP10SDL_Window T
_Z28ImParseFormatTrimDecorationsPKcPcm T
_Z28ImTextCountUtf8BytesFromCharPKcS0_ T
_Z29ImGui_ImplGlfw_ScrollCallbackP10GLFWwindowdd T
_Z30ImGui_ImplGlfw_MonitorCallbackP11GLFWmonitori T
_Z30ImGui_ImplSDLRenderer_NewFramev T
_Z30ImGui_ImplSDLRenderer_Shutdownv T
_Z30ImGui_ImplVulkanH_DestroyFrameP10VkDevice_TP23ImGui_ImplVulkanH_FramePK21VkAllocationCallbacks T
_Z30ImGui_ImplVulkan_LoadFunctionsPFPFvvEPKcPvES3_ T
_Z31ImFontAtlasBuildPackCustomRectsP11ImFontAtlasPv T
_Z31ImGui_ImplGlfw_InstallCallbacksP10GLFWwindow T
_Z31ImGui_ImplGlfw_RestoreCallbacksP10GLFWwindow T
_Z31ImGui_ImplVulkanH_DestroyWindowP12VkInstance_TP10VkDevice_TP24ImGui_ImplVulkanH_WindowPK21VkAllocationCallbacks T
_Z31ImGui_ImplVulkan_RenderDrawDataP10ImDrawDataP17VkCommandBuffer_TP12VkPipeline_T T
_Z32ImGui_ImplGlfw_CursorPosCallbackP10GLFWwindowdd T
_Z32ImGui_ImplOpenGL3_RenderDrawDataP10ImDrawData T
_Z33ImGui_ImplSDL2_InitForSDLRendererP10SDL_WindowP12SDL_Renderer T
_Z33ImGui_ImplVulkan_SetMinImageCountj T
_Z34ImBezierCubicClosestPointCasteljauRK6ImVec2S1_S1_S1_S1_f T
_Z34ImFontAtlasBuildMultiplyRectAlpha8PKhPhiiiii T
_Z34ImGui_ImplGlfw_CursorEnterCallbackP10GLFWwindowi T
_Z34ImGui_ImplGlfw_MouseButtonCallbackP10GLFWwindowiii T
_Z34ImGui_ImplGlfw_WindowFocusCallbackP10GLFWwindowi T
_Z35ImFontAtlasGetBuilderForStbTruetypev T
_Z35ImGui_ImplVulkan_CreateFontsTextureP17VkCommandBuffer_T T
_Z35ImGui_ImplVulkanH_SelectPresentModeP18VkPhysicalDevice_TP14VkSurfaceKHR_TPK16VkPresentModeKHRi T
_Z36ImGui_ImplOpenGL3_CreateFontsTexturev T
_Z36ImGui_ImplSDLRenderer_RenderDrawDataP10ImDrawData T
_Z36ImGui_ImplVulkan_CreateDeviceObjectsv T
_Z37ImGui_ImplOpenGL3_CreateDeviceObjectsv T
_Z37ImGui_ImplOpenGL3_DestroyFontsTexturev T
_Z37ImGui_ImplVulkan_DestroyDeviceObjectsv T
_Z37ImGui_ImplVulkanH_SelectSurfaceFormatP18VkPhysicalDevice_TP14VkSurfaceKHR_TPK8VkFormati15VkColorSpaceKHR T
_Z38ImGui_ImplOpenGL3_DestroyDeviceObjectsv T
_Z38ImGui_ImplVulkanH_CreateOrResizeWindowP12VkInstance_TP18VkPhysicalDevice_TP10VkDevice_TP24ImGui_ImplVulkanH_WindowjPK21VkAllocationCallbacksiij T
_Z39ImFontAtlasBuildMultiplyCalcLookupTablePhf T
_Z39ImGui_ImplVulkanH_CreateWindowSwapChainP18VkPhysicalDevice_TP10VkDevice_TP24ImGui_ImplVulkanH_WindowPK21VkAllocationCallbacksiij T
_Z40ImFontAtlasBuildRender8bppRectFromStringP11ImFontAtlasiiiiPKcch T
_Z40ImGui_ImplSDLRenderer_CreateFontsTexturev T
_Z40ImGui_ImplVulkanH_DestroyFrameSemaphoresP10VkDevice_TP33ImGui_ImplVulkanH_FrameSemaphoresPK21VkAllocationCallbacks T
_Z41ImFontAtlasBuildRender32bppRectFromStringP11ImFontAtlasiiiiPKccj T
_Z41ImGui_ImplSDLRenderer_CreateDeviceObjectsv T
_Z41ImGui_ImplSDLRenderer_DestroyFontsTexturev T
_Z41ImGui_ImplVulkan_DestroyFontUploadObjectsv T
_Z42ImGui_ImplSDLRenderer_DestroyDeviceObjectsv T
_Z43ImGui_ImplVulkanH_DestroyFrameRenderBuffersP10VkDevice_TP36ImGui_ImplVulkanH_FrameRenderBuffersPK21VkAllocationCallbacks T
_Z44ImGui_ImplVulkanH_CreateWindowCommandBuffersP18VkPhysicalDevice_TP10VkDevice_TP24ImGui_ImplVulkanH_WindowjPK21VkAllocationCallbacks T
_Z44ImGui_ImplVulkanH_DestroyWindowRenderBuffersP10VkDevice_TP37ImGui_ImplVulkanH_WindowRenderBuffersPK21VkAllocationCallbacks T
_Z49ImGui_ImplVulkanH_GetMinImageCountFromPresentMode16VkPresentModeKHR T
_Z8ImStrdupPKc T
_Z9IM_DELETEI10ImDrawListEvPT_ W
_Z9IM_DELETEI11ImFontAtlasEvPT_ W
_Z9IM_DELETEI11ImGuiWindowEvPT_ W
_Z9IM_DELETEI12ImGuiContextEvPT_ W
_Z9IM_DELETEI14ImGuiViewportPEvPT_ W
_Z9IM_DELETEI19ImGui_ImplGlfw_DataEvPT_ W
_Z9IM_DELETEI19ImGui_ImplSDL2_DataEvPT_ W
_Z9IM_DELETEI21ImGui_ImplVulkan_DataEvPT_ W
_Z9IM_DELETEI22ImGui_ImplOpenGL3_DataEvPT_ W
_Z9IM_DELETEI26ImGui_ImplSDLRenderer_DataEvPT_ W
_Z9IM_DELETEI6ImFontEvPT_ W
_Z9IM_DELETEIcEvPT_ W
_Z9ImHashStrPKcmj T
_Z9ImStrbolWPKtS0_ T
_Z9ImStricmpPKcS0_ T
_Z9ImStristrPKcS0_S0_S0_ T
_Z9ImStrlenWPKt T
_Z9ImStrncpyPcPKcm T
_ZdlPv12ImNewWrapperS_ W
_ZN10ImBitArrayILi132ELi0EE11SetBitRangeEii W
_ZN10ImBitArrayILi132ELi0EE12ClearAllBitsEv W
_ZN10ImBitArrayILi132ELi0EE6SetBitEi W
_ZN10ImBitArrayILi132ELi0EE8ClearBitEi W
_ZN10ImBitArrayILi132ELi0EEC1Ev W
_ZN10ImBitArrayILi132ELi0EEC2Ev W
_ZN10ImBitArrayILi133ELin512EE10SetAllBitsEv W
_ZN10ImBitArrayILi133ELin512EE12ClearAllBitsEv W
_ZN10ImBitArrayILi133ELin512EE6SetBitEi W
_ZN10ImBitArrayILi133ELin512EEC1Ev W
_ZN10ImBitArrayILi133ELin512EEC2Ev W
_ZN10ImBitArrayILi645ELi0EE12ClearAllBitsEv W
_ZN10ImBitArrayILi645ELi0EE6SetBitEi W
_ZN10ImBitArrayILi645ELi0EEC1Ev W
_ZN10ImBitArrayILi645ELi0EEC2Ev W
_ZN10ImDrawData14ScaleClipRectsERK6ImVec2 T
_ZN10ImDrawData17DeIndexAllBuffersEv T
_ZN10ImDrawData5ClearEv W
_ZN10ImDrawDataC1Ev W
_ZN10ImDrawDataC2Ev W
_ZN10ImDrawList10AddDrawCmdEv T
_ZN10ImDrawList10PathLineToERK6ImVec2 W
_ZN10ImDrawList10PathStrokeEjif W
_ZN10ImDrawList10PrimQuadUVERK6ImVec2S2_S2_S2_S2_S2_S2_S2_j T
_ZN10ImDrawList10PrimRectUVERK6ImVec2S2_S2_S2_j T
_ZN10ImDrawList11AddCallbackEPFvPKS_PK9ImDrawCmdEPv T
_ZN10ImDrawList11AddPolylineEPK6ImVec2ijif T
_ZN10ImDrawList11AddTriangleERK6ImVec2S2_S2_jf T
_ZN10ImDrawList11_PathArcToNERK6ImVec2fffi T
_ZN10ImDrawList11PopClipRectEv T
_ZN10ImDrawList11PrimReserveEii T
_ZN10ImDrawList12AddImageQuadEPvRK6ImVec2S3_S3_S3_S3_S3_S3_S3_j T
_ZN10ImDrawList12PopTextureIDEv T
_ZN10ImDrawList12PrimWriteIdxEt W
_ZN10ImDrawList12PrimWriteVtxERK6ImVec2S2_j W
_ZN10ImDrawList12PushClipRectE6ImVec2S0_b T
_ZN10ImDrawList13AddNgonFilledERK6ImVec2fji T
_ZN10ImDrawList13AddQuadFilledERK6ImVec2S2_S2_S2_j T
_ZN10ImDrawList13AddRectFilledERK6ImVec2S2_jfi T
_ZN10ImDrawList13PathArcToFastERK6ImVec2fii T
_ZN10ImDrawList13PrimUnreserveEii T
_ZN10ImDrawList13PushTextureIDEPv T
_ZN10ImDrawList14AddBezierCubicERK6ImVec2S2_S2_S2_jfi T
_ZN10ImDrawList14PathFillConvexEj W
_ZN10ImDrawList15AddCircleFilledERK6ImVec2fji T
_ZN10ImDrawList15AddImageRoundedEPvRK6ImVec2S3_S3_S3_jfi T
_ZN10ImDrawList16_ClearFreeMemoryEv T
_ZN10ImDrawList16_PathArcToFastExERK6ImVec2fiii T
_ZN10ImDrawList17AddTriangleFilledERK6ImVec2S2_S2_j T
_ZN10ImDrawList17_PopUnusedDrawCmdEv T
_ZN10ImDrawList17_ResetForNewFrameEv T
_ZN10ImDrawList17_TryMergeDrawCmdsEv T
_ZN10ImDrawList18AddBezierQuadraticERK6ImVec2S2_S2_jfi T
_ZN10ImDrawList18_OnChangedClipRectEv T
_ZN10ImDrawList19AddConvexPolyFilledEPK6ImVec2ij T
_ZN10ImDrawList19_OnChangedTextureIDEv T
_ZN10ImDrawList19_OnChangedVtxOffsetEv T
_ZN10ImDrawList22PathBezierCubicCurveToERK6ImVec2S2_S2_i T
_ZN10ImDrawList22PushClipRectFullScreenEv T
_ZN10ImDrawList23AddRectFilledMultiColorERK6ImVec2S2_jjjj T
_ZN10ImDrawList26PathBezierQuadraticCurveToERK6ImVec2S2_i T
_ZN10ImDrawList7AddLineERK6ImVec2S2_jf T
_ZN10ImDrawList7AddNgonERK6ImVec2fjif T
_ZN10ImDrawList7AddQuadERK6ImVec2S2_S2_S2_jf T
_ZN10ImDrawList7AddRectERK6ImVec2S2_jfif T
_ZN10ImDrawList7AddTextEPK6ImFontfRK6ImVec2jPKcS7_fPK6ImVec4 T
_ZN10ImDrawList7AddTextERK6ImVec2jPKcS4_ T
_ZN10ImDrawList7PrimVtxERK6ImVec2S2_j W
_ZN10ImDrawList8AddImageEPvRK6ImVec2S3_S3_S3_j T
_ZN10ImDrawList8PathRectERK6ImVec2S2_fi T
_ZN10ImDrawList8PrimRectERK6ImVec2S2_j T
_ZN10ImDrawList9AddCircleERK6ImVec2fjif T
_ZN10ImDrawList9PathArcToERK6ImVec2fffi T
_ZN10ImDrawListC1EPK20ImDrawListSharedData W
_ZN10ImDrawListC2EPK20ImDrawListSharedData W
_ZN10ImDrawListD1Ev W
_ZN10ImDrawListD2Ev W
_ZN10ImGuiStyle13ScaleAllSizesEf T
_ZN10ImGuiStyleC1Ev T
_ZN10ImGuiStyleC2Ev T
_ZN10ImGuiTableC1Ev W
_ZN10ImGuiTableC2Ev W
_ZN10ImGuiTableD1Ev W
_ZN10ImGuiTableD2Ev W
_ZN10MyDocument12DoForceCloseEv W
_ZN10MyDocument12DoQueueCloseEv W
_ZN10MyDocument15DisplayContentsEPS_ W
_ZN10MyDocument18DisplayContextMenuEPS_ W
_ZN10MyDocument6DoOpenEv W
_ZN10MyDocument6DoSaveEv W
_ZN10MyDocumentC1EPKcbRK6ImVec4 W
_ZN10MyDocumentC2EPKcbRK6ImVec4 W
_ZN11ImBitVector5ClearEv W
_ZN11ImBitVector6CreateEi W
_ZN11ImBitVector6SetBitEi W
_ZN11ImBitVectorD1Ev W
_ZN11ImBitVectorD2Ev W
_ZN11ImFontAtlas10ClearFontsEv T
_ZN11ImFontAtlas12ClearTexDataEv T
_ZN11ImFontAtlas14AddFontDefaultEPK12ImFontConfig T
_ZN11ImFontAtlas14ClearInputDataEv T
_ZN11ImFontAtlas18AddFontFromFileTTFEPKcfPK12ImFontConfigPKt T
_ZN11ImFontAtlas18GetGlyphRangesThaiEv T
_ZN11ImFontAtlas18GetTexDataAsAlpha8EPPhPiS2_S2_ T
_ZN11ImFontAtlas18GetTexDataAsRGBA32EPPhPiS2_S2_ T
_ZN11ImFontAtlas20AddCustomRectRegularEii T
_ZN11ImFontAtlas20AddFontFromMemoryTTFEPvifPK12ImFontConfigPKt T
_ZN11ImFontAtlas20GetCustomRectByIndexEi W
_ZN11ImFontAtlas20GetGlyphRangesKoreanEv T
_ZN11ImFontAtlas21GetGlyphRangesDefaultEv T
_ZN11ImFontAtlas21GetMouseCursorTexDataEiP6ImVec2S1_S1_S1_ T
_ZN11ImFontAtlas22AddCustomRectFontGlyphEP6ImFonttiifRK6ImVec2 T
_ZN11ImFontAtlas22GetGlyphRangesCyrillicEv T
_ZN11ImFontAtlas22GetGlyphRangesJapaneseEv T
_ZN11ImFontAtlas24GetGlyphRangesVietnameseEv T
_ZN11ImFontAtlas25GetGlyphRangesChineseFullEv T
_ZN11ImFontAtlas30AddFontFromMemoryCompressedTTFEPKvifPK12ImFontConfigPKt T
_ZN11ImFontAtlas36AddFontFromMemoryCompressedBase85TTFEPKcfPK12ImFontConfigPKt T
_ZN11ImFontAtlas37GetGlyphRangesChineseSimplifiedCommonEv T
_ZN11ImFontAtlas5BuildEv T
_ZN11ImFontAtlas5ClearEv T
_ZN11ImFontAtlas7AddFontEPK12ImFontConfig T
_ZN11ImFontAtlas8SetTexIDEPv W
_ZN11ImFontAtlasC1Ev T
_ZN11ImFontAtlasC2Ev T
_ZN11ImFontAtlasD1Ev T
_ZN11ImFontAtlasD2Ev T
_ZN11ImGuiTabBarC1Ev T
_ZN11ImGuiTabBarC2Ev T
_ZN11ImGuiTabBarD1Ev W
_ZN11ImGuiTabBarD2Ev W
_ZN11ImGuiWindow16GetIDNoKeepAliveEi T
_ZN11ImGuiWindow16GetIDNoKeepAliveEPKcS1_ T
_ZN11ImGuiWindow16GetIDNoKeepAliveEPKv T
_ZN11ImGuiWindow18GetIDFromRectangleERK6ImRect T
_ZN11ImGuiWindow5GetIDEi T
_ZN11ImGuiWindow5GetIDEPKcS1_ T
_ZN11ImGuiWindow5GetIDEPKv T
_ZN11ImGuiWindowC1EP12ImGuiContextPKc T
_ZN11ImGuiWindowC2EP12ImGuiContextPKc T
_ZN11ImGuiWindowD1Ev T
_ZN11ImGuiWindowD2Ev T
_ZN12ImFontConfigC1Ev T
_ZN12ImFontConfigC2Ev T
_ZN12ImGuiContextC1EP11ImFontAtlas W
_ZN12ImGuiContextC2EP11ImFontAtlas W
_ZN12ImGuiContextD1Ev W
_ZN12ImGuiContextD2Ev W
_ZN12ImGuiPayload5ClearEv W
_ZN12ImGuiPayloadC1Ev W
_ZN12ImGuiPayloadC2Ev W
_ZN12ImGuiStorage10GetBoolRefEjb T
_ZN12ImGuiStorage10SetVoidPtrEjPv T
_ZN12ImGuiStorage11GetFloatRefEjf T
_ZN12ImGuiStorage13GetVoidPtrRefEjPv T
_ZN12ImGuiStorage14BuildSortByKeyEv T
_ZN12ImGuiStorage16ImGuiStoragePairC1Ejf W
_ZN12ImGuiStorage16ImGuiStoragePairC1Eji W
_ZN12ImGuiStorage16ImGuiStoragePairC1EjPv W
_ZN12ImGuiStorage16ImGuiStoragePairC2Ejf W
_ZN12ImGuiStorage16ImGuiStoragePairC2Eji W
_ZN12ImGuiStorage16ImGuiStoragePairC2EjPv W
_ZN12ImGuiStorage5ClearEv W
_ZN12ImGuiStorage6SetIntEji T
_ZN12ImGuiStorage7SetBoolEjb T
_ZN12ImGuiStorage8SetFloatEjf T
_ZN12ImGuiStorage9GetIntRefEji T
_ZN12ImGuiStorage9SetAllIntEi T
_ZN12ImGuiStorageC1Ev W
_ZN12ImGuiStorageC2Ev W
_ZN12ImGuiStorageD1Ev W
_ZN12ImGuiStorageD2Ev W
_ZN12ImGuiTabItemC1Ev W
_ZN12ImGuiTabItemC2Ev W
_ZN13ExampleAppLog4DrawEPKcPb W
_ZN13ExampleAppLog5ClearEv W
_ZN13ExampleAppLog6AddLogEPKcz W
_ZN13ExampleAppLogC1Ev W
_ZN13ExampleAppLogC2Ev W
_ZN13ExampleAppLogD1Ev W
_ZN13ExampleAppLogD2Ev W
_ZN13ImChunkStreamI18ImGuiTableSettingsE10chunk_sizeEPKS0_ W
_ZN13ImChunkStreamI18ImGuiTableSettingsE10next_chunkEPS0_ W
_ZN13ImChunkStreamI18ImGuiTableSettingsE11alloc_chunkEm W
_ZN13ImChunkStreamI18ImGuiTableSettingsE15offset_from_ptrEPKS0_ W
_ZN13ImChunkStreamI18ImGuiTableSettingsE15ptr_from_offsetEi W
_ZN13ImChunkStreamI18ImGuiTableSettingsE3endEv W
_ZN13ImChunkStreamI18ImGuiTableSettingsE4swapERS1_ W
_ZN13ImChunkStreamI18ImGuiTableSettingsE5beginEv W
_ZN13ImChunkStreamI18ImGuiTableSettingsE5clearEv W
_ZN13ImChunkStreamI18ImGuiTableSettingsEC1Ev W
_ZN13ImChunkStreamI18ImGuiTableSettingsEC2Ev W
_ZN13ImChunkStreamI18ImGuiTableSettingsED1Ev W
_ZN13ImChunkStreamI18ImGuiTableSettingsED2Ev W
_ZN13ImChunkStreamI19ImGuiWindowSettingsE10chunk_sizeEPKS0_ W
_ZN13ImChunkStreamI19ImGuiWindowSettingsE10next_chunkEPS0_ W
_ZN13ImChunkStreamI19ImGuiWindowSettingsE11alloc_chunkEm W
_ZN13ImChunkStreamI19ImGuiWindowSettingsE15offset_from_ptrEPKS0_ W
_ZN13ImChunkStreamI19ImGuiWindowSettingsE15ptr_from_offsetEi W
_ZN13ImChunkStreamI19ImGuiWindowSettingsE3endEv W
_ZN13ImChunkStreamI19ImGuiWindowSettingsE5beginEv W
_ZN13ImChunkStreamI19ImGuiWindowSettingsE5clearEv W
_ZN13ImChunkStreamI19ImGuiWindowSettingsEC1Ev W
_ZN13ImChunkStreamI19ImGuiWindowSettingsEC2Ev W
_ZN13ImChunkStreamI19ImGuiWindowSettingsED1Ev W
_ZN13ImChunkStreamI19ImGuiWindowSettingsED2Ev W
_ZN13ImDrawChannelC1Ev W
_ZN13ImDrawChannelC2Ev W
_ZN13ImGuiColorModC1Ev W
_ZN13ImGuiColorModC2Ev W
_ZN13ImGuiStyleModC1Ei6ImVec2 W
_ZN13ImGuiStyleModC1Eif W
_ZN13ImGuiStyleModC2Ei6ImVec2 W
_ZN13ImGuiStyleModC2Eif W
_ZN13ImGuiViewportC1Ev W
_ZN13ImGuiViewportC2Ev W
_ZN14ImGuiPopupDataC1Ev W
_ZN14ImGuiPopupDataC2Ev W
_ZN14ImGuiStackToolC1Ev W
_ZN14ImGuiStackToolC2Ev W
_ZN14ImGuiStackToolD1Ev W
_ZN14ImGuiStackToolD2Ev W
_ZN14ImGuiViewportP14UpdateWorkRectEv W
_ZN14ImGuiViewportPC1Ev W
_ZN14ImGuiViewportPC2Ev W
_ZN14ImGuiViewportPD1Ev W
_ZN14ImGuiViewportPD2Ev W
_ZN15ImDrawCmdHeaderC1Ev W
_ZN15ImDrawCmdHeaderC2Ev W
_ZN15ImGuiInputEventC1Ev W
_ZN15ImGuiInputEventC2Ev W
_ZN15ImGuiOldColumnsC1Ev W
_ZN15ImGuiOldColumnsC2Ev W
_ZN15ImGuiOldColumnsD1Ev W
_ZN15ImGuiOldColumnsD2Ev W
_ZN15ImGuiPtrOrIndexC1Ei W
_ZN15ImGuiPtrOrIndexC1EPv W
_ZN15ImGuiPtrOrIndexC2Ei W
_ZN15ImGuiPtrOrIndexC2EPv W
_ZN15ImGuiStackSizes17SetToCurrentStateEv T
_ZN15ImGuiStackSizes23CompareWithCurrentStateEv T
_ZN15ImGuiStackSizesC1Ev W
_ZN15ImGuiStackSizesC2Ev W
_ZN15ImGuiTextBuffer11EmptyStringE B 1
_ZN15ImGuiTextBuffer5clearEv W
_ZN15ImGuiTextBuffer6appendEPKcS1_ T
_ZN15ImGuiTextBuffer7appendfEPKcz T
_ZN15ImGuiTextBuffer7reserveEi W
_ZN15ImGuiTextBuffer8appendfvEPKcP13__va_list_tag T
_ZN15ImGuiTextBufferC1Ev W
_ZN15ImGuiTextBufferC2Ev W
_ZN15ImGuiTextBufferD1Ev W
_ZN15ImGuiTextBufferD2Ev W
_ZN15ImGuiTextFilter14ImGuiTextRangeC1EPKcS2_ W
_ZN15ImGuiTextFilter14ImGuiTextRangeC2EPKcS2_ W
_ZN15ImGuiTextFilter4DrawEPKcf T
_ZN15ImGuiTextFilter5BuildEv T
_ZN15ImGuiTextFilterC1EPKc T
_ZN15ImGuiTextFilterC2EPKc T
_ZN15ImGuiTextFilterD1Ev W
_ZN15ImGuiTextFilterD2Ev W
_ZN15ImSpanAllocatorILi3EE13GetSpanPtrEndEi W
_ZN15ImSpanAllocatorILi3EE15GetSpanPtrBeginEi W
_ZN15ImSpanAllocatorILi3EE15SetArenaBasePtrEPv W
_ZN15ImSpanAllocatorILi3EE19GetArenaSizeInBytesEv W
_ZN15ImSpanAllocatorILi3EE7GetSpanI16ImGuiTableColumnEEviP6ImSpanIT_E W
_ZN15ImSpanAllocatorILi3EE7GetSpanI18ImGuiTableCellDataEEviP6ImSpanIT_E W
_ZN15ImSpanAllocatorILi3EE7GetSpanIaEEviP6ImSpanIT_E W
_ZN15ImSpanAllocatorILi3EE7ReserveEimi W
_ZN15ImSpanAllocatorILi3EEC1Ev W
_ZN15ImSpanAllocatorILi3EEC2Ev W
_ZN16ImGuiListClipper26ForceDisplayRangeByIndicesEii T
_ZN16ImGuiListClipper3EndEv T
_ZN16ImGuiListClipper4StepEv T
_ZN16ImGuiListClipper5BeginEif T
_ZN16ImGuiListClipperC1Ev T
_ZN16ImGuiListClipperC2Ev T
_ZN16ImGuiListClipperD1Ev T
_ZN16ImGuiListClipperD2Ev T
_ZN16ImGuiMenuColumns11DeclColumnsEffff T
_ZN16ImGuiMenuColumns18CalcNextTotalWidthEb T
_ZN16ImGuiMenuColumns6UpdateEfb T
_ZN16ImGuiMenuColumnsC1Ev W
_ZN16ImGuiMenuColumnsC2Ev W
_ZN16ImGuiNavItemData5ClearEv W
_ZN16ImGuiNavItemDataC1Ev W
_ZN16ImGuiNavItemDataC2Ev W
_ZN16ImGuiTableColumnC1Ev W
_ZN16ImGuiTableColumnC2Ev W
_ZN17ExampleAppConsole11ExecCommandEPKc W
_ZN17ExampleAppConsole16TextEditCallbackEP26ImGuiInputTextCallbackData W
_ZN17ExampleAppConsole20TextEditCallbackStubEP26ImGuiInputTextCallbackData W
_ZN17ExampleAppConsole4DrawEPKcPb W
_ZN17ExampleAppConsole6AddLogEPKcz W
_ZN17ExampleAppConsole6StrdupEPKc W
_ZN17ExampleAppConsole7StricmpEPKcS1_ W
_ZN17ExampleAppConsole7StrtrimEPc W
_ZN17ExampleAppConsole8ClearLogEv W
_ZN17ExampleAppConsole8StrnicmpEPKcS1_i W
_ZN17ExampleAppConsoleC1Ev W
_ZN17ExampleAppConsoleC2Ev W
_ZN17ExampleAppConsoleD1Ev W
_ZN17ExampleAppConsoleD2Ev W
_ZN17ImDrawDataBuilder22FlattenIntoSingleLayerEv T
_ZN17ImDrawDataBuilder5ClearEv W
_ZN17ImDrawDataBuilderC1Ev W
_ZN17ImDrawDataBuilderC2Ev W
_ZN17ImDrawDataBuilderD1Ev W
_ZN17ImDrawDataBuilderD2Ev W
_ZN17ImGuiLastItemDataC1Ev W
_ZN17ImGuiLastItemDataC2Ev W
_ZN17ImGuiNextItemData10ClearFlagsEv W
_ZN17ImGuiNextItemDataC1Ev W
_ZN17ImGuiNextItemDataC2Ev W
_ZN18ImDrawListSplitter15ClearFreeMemoryEv T
_ZN18ImDrawListSplitter17SetCurrentChannelEP10ImDrawListi T
_ZN18ImDrawListSplitter5ClearEv W
_ZN18ImDrawListSplitter5MergeEP10ImDrawList T
_ZN18ImDrawListSplitter5SplitEP10ImDrawListi T
_ZN18ImDrawListSplitterC1Ev W
_ZN18ImDrawListSplitterC2Ev W
_ZN18ImDrawListSplitterD1Ev W
_ZN18ImDrawListSplitterD2Ev W
_ZN18ImFontBuildSrcDataD1Ev W
_ZN18ImFontBuildSrcDataD2Ev W
_ZN18ImGuiMetricsConfigC1Ev W
_ZN18ImGuiMetricsConfigC2Ev W
_ZN18ImGuiOldColumnDataC1Ev W
_ZN18ImGuiOldColumnDataC2Ev W
_ZN18ImGuiTabBarSectionC1Ev W
_ZN18ImGuiTabBarSectionC2Ev W
_ZN18ImGuiTableSettings17GetColumnSettingsEv W
_ZN18ImGuiTableSettingsC1Ev W
_ZN18ImGuiTableSettingsC2Ev W
_ZN18ImGuiTableTempDataC1Ev W
_ZN18ImGuiTableTempDataC2Ev W
_ZN18ImGuiTableTempDataD1Ev W
_ZN18ImGuiTableTempDataD2Ev W
_ZN19ExampleAppDocumentsC1Ev W
_ZN19ExampleAppDocumentsC2Ev W
_ZN19ExampleAppDocumentsD1Ev W
_ZN19ExampleAppDocumentsD2Ev W
_ZN19ImGui_ImplGlfw_DataC1Ev W
_ZN19ImGui_ImplGlfw_DataC2Ev W
_ZN19ImGui_ImplSDL2_DataC1Ev W
_ZN19ImGui_ImplSDL2_DataC2Ev W
_ZN19ImGuiInputTextState11CursorClampEv W
_ZN19ImGuiInputTextState12OnKeyPressedEi T
_ZN19ImGuiInputTextState14ClearSelectionEv W
_ZN19ImGuiInputTextState15ClearFreeMemoryEv W
_ZN19ImGuiInputTextState15CursorAnimResetEv W
_ZN19ImGuiInputTextState9SelectAllEv W
_ZN19ImGuiInputTextStateC1Ev W
_ZN19ImGuiInputTextStateC2Ev W
_ZN19ImGuiInputTextStateD1Ev W
_ZN19ImGuiInputTextStateD2Ev W
_ZN19ImGuiNextWindowData10ClearFlagsEv W
_ZN19ImGuiNextWindowDataC1Ev W
_ZN19ImGuiNextWindowDataC2Ev W
_ZN19ImGuiStackLevelInfoC1Ev W
_ZN19ImGuiStackLevelInfoC2Ev W
_ZN19ImGuiTableSortSpecsC1Ev W
_ZN19ImGuiTableSortSpecsC2Ev W
_ZN19ImGuiWindowSettings7GetNameEv W
_ZN19ImGuiWindowSettingsC1Ev W
_ZN19ImGuiWindowSettingsC2Ev W
_ZN19ImGuiWindowTempDataC1Ev W
_ZN19ImGuiWindowTempDataC2Ev W
_ZN19ImGuiWindowTempDataD1Ev W
_ZN19ImGuiWindowTempDataD2Ev W
_ZN20ImDrawListSharedData29SetCircleTessellationMaxErrorEf T
_ZN20ImDrawListSharedDataC1Ev T
_ZN20ImDrawListSharedDataC2Ev T
_ZN20ImGuiListClipperData5ResetEP16ImGuiListClipper W
_ZN20ImGuiListClipperDataC1Ev W
_ZN20ImGuiListClipperDataC2Ev W
_ZN20ImGuiListClipperDataD1Ev W
_ZN20ImGuiListClipperDataD2Ev W
_ZN20ImGuiPlatformImeDataC1Ev W
_ZN20ImGuiPlatformImeDataC2Ev W
_ZN20ImGuiSettingsHandlerC1Ev W
_ZN20ImGuiSettingsHandlerC2Ev W
_ZN20ImGuiWindowStackDataC1Ev W
_ZN20ImGuiWindowStackDataC2Ev W
_ZN21ImFontAtlasCustomRectC1Ev W
_ZN21ImFontAtlasCustomRectC2Ev W
_ZN21ImGuiComboPreviewDataC1Ev W
_ZN21ImGuiComboPreviewDataC2Ev W
_ZN21ImGui_ImplVulkan_DataC1Ev W
_ZN21ImGui_ImplVulkan_DataC2Ev W
_ZN21ImGuiListClipperRange11FromIndicesEii W
_ZN21ImGuiListClipperRange13FromPositionsEffii W
_ZN21ImGuiSizeCallbackDataC1Ev W
_ZN21ImGuiSizeCallbackDataC2Ev W
_ZN22ImGui_ImplOpenGL3_DataC1Ev W
_ZN22ImGui_ImplOpenGL3_DataC2Ev W
_ZN24ImFontGlyphRangesBuilder11BuildRangesEP8ImVectorItE T
_ZN24ImFontGlyphRangesBuilder6SetBitEm W
_ZN24ImFontGlyphRangesBuilder7AddCharEt W
_ZN24ImFontGlyphRangesBuilder7AddTextEPKcS1_ T
_ZN24ImFontGlyphRangesBuilder9AddRangesEPKt T
_ZN24ImGui_ImplVulkanH_WindowC1Ev W
_ZN24ImGui_ImplVulkanH_WindowC2Ev W
_ZN24ImGuiPlotArrayGetterDataC1EPKfi W
_ZN24ImGuiPlotArrayGetterDataC2EPKfi W
_ZN24ImGuiTableColumnSettingsC1Ev W
_ZN24ImGuiTableColumnSettingsC2Ev W
_ZN25ImGuiTableColumnSortSpecsC1Ev W
_ZN25ImGuiTableColumnSortSpecsC2Ev W
_ZN26ImGui_ImplSDLRenderer_DataC1Ev W
_ZN26ImGui_ImplSDLRenderer_DataC2Ev W
_ZN26ImGuiInputTextCallbackData11DeleteCharsEii T
_ZN26ImGuiInputTextCallbackData11InsertCharsEiPKcS1_ T
_ZN26ImGuiInputTextCallbackData9SelectAllEv W
_ZN26ImGuiInputTextCallbackDataC1Ev T
_ZN26ImGuiInputTextCallbackDataC2Ev T
_ZN5ImGui10BeginChildEjRK6ImVec2bi T
_ZN5ImGui10BeginChildEPKcRK6ImVec2bi T
_ZN5ImGui10BeginComboEPKcS1_i T
_ZN5ImGui10BeginGroupEv T
_ZN5ImGui10BeginPopupEPKci T
_ZN5ImGui10BeginTableEPKciiRK6ImVec2f T
_ZN5ImGui10BulletTextEPKcz T
_ZN5ImGui10ColorEdit3EPKcPfi T
_ZN5ImGui10ColorEdit4EPKcPfi T
_ZN5ImGui10DragFloat2EPKcPffffS1_i T
_ZN5ImGui10DragFloat3EPKcPffffS1_i T
_ZN5ImGui10DragFloat4EPKcPffffS1_i T
_ZN5ImGui10DragScalarEPKciPvfPKvS4_S1_f T
_ZN5ImGui10DragScalarEPKciPvfPKvS4_S1_i T
_ZN5ImGui10EndColumnsEv T
_ZN5ImGui10EndListBoxEv T
_ZN5ImGui10EndMenuBarEv T
_ZN5ImGui10EndTabItemEv T
_ZN5ImGui10EndTooltipEv T
_ZN5ImGui10GetKeyDataEi T
_ZN5ImGui10GetKeyNameEi T
_ZN5ImGui10GetScrollXEv T
_ZN5ImGui10GetScrollYEv T
_ZN5ImGui10GetVersionEv T
_ZN5ImGui10InitializeEP12ImGuiContext T
_ZN5ImGui10InputFloatEPKcPfffS1_i T
_ZN5ImGui10IsNamedKeyEi W
_ZN5ImGui10LabelTextVEPKcS1_P13__va_list_tag T
_ZN5ImGui10LogButtonsEv T
_ZN5ImGui10MenuItemExEPKcS1_S1_bb T
_ZN5ImGui10NextColumnEv T
_ZN5ImGui10RenderTextE6ImVec2PKcS2_b T
_ZN5ImGui10SelectableEPKcbiRK6ImVec2 T
_ZN5ImGui10SelectableEPKcPbiRK6ImVec2 T
_ZN5ImGui10SetFocusIDEjP11ImGuiWindow T
_ZN5ImGui10SetScrollXEf T
_ZN5ImGui10SetScrollXEP11ImGuiWindowf T
_ZN5ImGui10SetScrollYEf T
_ZN5ImGui10SetScrollYEP11ImGuiWindowf T
_ZN5ImGui10SetTooltipEPKcz T
_ZN5ImGui10SliderInt2EPKcPiiiS1_i T
_ZN5ImGui10SliderInt3EPKcPiiiS1_i T
_ZN5ImGui10SliderInt4EPKcPiiiS1_i T
_ZN5ImGui10TreeNodeExEPKci T
_ZN5ImGui10TreeNodeExEPKciS1_z T
_ZN5ImGui10TreeNodeExEPKviPKcz T
_ZN5ImGui10VSliderIntEPKcRK6ImVec2PiiiS1_i T
_ZN5ImGui11ArrowButtonEPKci T
_ZN5ImGui11BeginMenuExEPKcS1_b T
_ZN5ImGui11BeginTabBarEPKci T
_ZN5ImGui11BulletTextVEPKcP13__va_list_tag T
_ZN5ImGui11CloseButtonEjRK6ImVec2 T
_ZN5ImGui11ColorButtonEPKcRK6ImVec4i6ImVec2 T
_ZN5ImGui11DragScalarNEPKciPvifPKvS4_S1_f T
_ZN5ImGui11DragScalarNEPKciPvifPKvS4_S1_i T
_ZN5ImGui11EndDisabledEv T
_ZN5ImGui11FocusWindowEP11ImGuiWindow T
_ZN5ImGui11GetColorU32Eif T
_ZN5ImGui11GetColorU32Ej T
_ZN5ImGui11GetColorU32ERK6ImVec4 T
_ZN5ImGui11GetDrawDataEv T
_ZN5ImGui11GetFontSizeEv T
_ZN5ImGui11GetKeyIndexEi T
_ZN5ImGui11GetMousePosEv T
_ZN5ImGui11ImageButtonEPvRK6ImVec2S3_S3_iRK6ImVec4S6_ T
_ZN5ImGui11InputDoubleEPKcPdddS1_i T
_ZN5ImGui11InputFloat2EPKcPfS1_i T
_ZN5ImGui11InputFloat3EPKcPfS1_i T
_ZN5ImGui11InputFloat4EPKcPfS1_i T
_ZN5ImGui11InputScalarEPKciPvPKvS4_S1_i T
_ZN5ImGui11InputTextExEPKcS1_PciRK6ImVec2iPFiP26ImGuiInputTextCallbackDataEPv T
_ZN5ImGui11IsClippedExERK6ImRectj T
_ZN5ImGui11IsLegacyKeyEi W
_ZN5ImGui11IsMouseDownEi T
_ZN5ImGui11IsPopupOpenEji T
_ZN5ImGui11IsPopupOpenEPKci T
_ZN5ImGui11KeepAliveIDEj T
_ZN5ImGui11LogToBufferEi T
_ZN5ImGui11OpenPopupExEji T
_ZN5ImGui11PopClipRectEv T
_ZN5ImGui11PopItemFlagEv T
_ZN5ImGui11PopStyleVarEi T
_ZN5ImGui11ProgressBarEfRK6ImVec2PKc T
_ZN5ImGui11RadioButtonEPKcb T
_ZN5ImGui11RadioButtonEPKcPii T
_ZN5ImGui11RenderArrowEP10ImDrawList6ImVec2jif T
_ZN5ImGui11RenderFrameE6ImVec2S0_jbf T
_ZN5ImGui11ScrollbarExERK6ImRectj9ImGuiAxisPxxxi T
_ZN5ImGui11SeparatorExEi T
_ZN5ImGui11SetActiveIDEjP11ImGuiWindow T
_ZN5ImGui11SetTooltipVEPKcP13__va_list_tag T
_ZN5ImGui11SliderAngleEPKcPfffS1_i T
_ZN5ImGui11SliderFloatEPKcPfffS1_i T
_ZN5ImGui11SmallButtonEPKc T
_ZN5ImGui11TableEndRowEP10ImGuiTable T
_ZN5ImGui11TableHeaderEPKc T
_ZN5ImGui11TableRemoveEP10ImGuiTable T
_ZN5ImGui11TextColoredERK6ImVec4PKcz T
_ZN5ImGui11TextWrappedEPKcz T
_ZN5ImGui11TreeNodeExVEPKciS1_P13__va_list_tag T
_ZN5ImGui11TreeNodeExVEPKviPKcP13__va_list_tag T
_ZN5ImGui12ActivateItemEj T
_ZN5ImGui12BeginChildExEPKcjRK6ImVec2bi T
_ZN5ImGui12BeginColumnsEPKcii T
_ZN5ImGui12BeginListBoxEPKcRK6ImVec2 T
_ZN5ImGui12BeginMenuBarEv T
_ZN5ImGui12BeginPopupExEji T
_ZN5ImGui12BeginTabItemEPKcPbi T
_ZN5ImGui12BeginTableExEPKcjiiRK6ImVec2f T
_ZN5ImGui12BeginTooltipEv T
_ZN5ImGui12CalcItemSizeE6ImVec2ff T
_ZN5ImGui12CalcTextSizeEPKcS1_bf T
_ZN5ImGui12ColorPicker3EPKcPfi T
_ZN5ImGui12ColorPicker4EPKcPfiPKf T
_ZN5ImGui12ColorTooltipEPKcPKfi T
_ZN5ImGui12DragBehaviorEjiPvfPKvS2_PKci T
_ZN5ImGui12GetColumnsIDEPKci T
_ZN5ImGui12GetCursorPosEv T
_ZN5ImGui12GetHoveredIDEv T
_ZN5ImGui12GetWindowPosEv T
_ZN5ImGui12InputScalarNEPKciPviPKvS4_S1_i T
_ZN5ImGui12IsGamepadKeyEi W
_ZN5ImGui12IsItemActiveEv T
_ZN5ImGui12IsItemEditedEv T
_ZN5ImGui12IsKeyPressedEib T
_ZN5ImGui12PopItemWidthEv T
_ZN5ImGui12PushClipRectERK6ImVec2S2_b T
_ZN5ImGui12PushItemFlagEib T
_ZN5ImGui12PushStyleVarEif T
_ZN5ImGui12PushStyleVarEiRK6ImVec2 T
_ZN5ImGui12RenderBulletEP10ImDrawList6ImVec2j T
_ZN5ImGui12ScrollToItemEi T
_ZN5ImGui12ScrollToRectEP11ImGuiWindowRK6ImRecti T
_ZN5ImGui12SetCursorPosERK6ImVec2 T
_ZN5ImGui12SetHoveredIDEj T
_ZN5ImGui12SetWindowPosEP11ImGuiWindowRK6ImVec2i T
_ZN5ImGui12SetWindowPosEPKcRK6ImVec2i T
_ZN5ImGui12SetWindowPosERK6ImVec2i T
_ZN5ImGui12ShrinkWidthsEP20ImGuiShrinkWidthItemif T
_ZN5ImGui12SliderFloat2EPKcPfffS1_i T
_ZN5ImGui12SliderFloat3EPKcPfffS1_i T
_ZN5ImGui12SliderFloat4EPKcPfffS1_i T
_ZN5ImGui12SliderScalarEPKciPvPKvS4_S1_f T
_ZN5ImGui12SliderScalarEPKciPvPKvS4_S1_i T
_ZN5ImGui12TableEndCellEP10ImGuiTable T
_ZN5ImGui12TableNextRowEif T
_ZN5ImGui12TextColoredVERK6ImVec4PKcP13__va_list_tag T
_ZN5ImGui12TextDisabledEPKcz T
_ZN5ImGui12TextWrappedVEPKcP13__va_list_tag T
_ZN5ImGui12VSliderFloatEPKcRK6ImVec2PfffS1_i T
_ZN5ImGui13ArrowButtonExEPKci6ImVec2i T
_ZN5ImGui13BeginDisabledEb T
_ZN5ImGui13BeginTabBarExEP11ImGuiTabBarRK6ImRecti T
_ZN5ImGui13CalcItemWidthEv T
_ZN5ImGui13CheckboxFlagsEPKcPii T
_ZN5ImGui13CheckboxFlagsEPKcPjj T
_ZN5ImGui13CheckboxFlagsEPKcPxx T
_ZN5ImGui13CheckboxFlagsEPKcPyy T
_ZN5ImGui13ClearActiveIDEv T
_ZN5ImGui13ClearDragDropEv T
_ZN5ImGui13CreateContextEP11ImFontAtlas T
_ZN5ImGui13DataTypeClampEiPvPKvS2_ T
_ZN5ImGui13DebugNodeFontEP6ImFont T
_ZN5ImGui13DragBehaviorTIdddEEbiPT_fS1_S1_PKci W
_ZN5ImGui13DragBehaviorTIfffEEbiPT_fS1_S1_PKci W
_ZN5ImGui13DragBehaviorTIiifEEbiPT_fS1_S1_PKci W
_ZN5ImGui13DragBehaviorTIjifEEbiPT_fS1_S1_PKci W
_ZN5ImGui13DragBehaviorTIxxdEEbiPT_fS1_S1_PKci W
_ZN5ImGui13DragBehaviorTIyxdEEbiPT_fS1_S1_PKci W
_ZN5ImGui13DragIntRange2EPKcPiS2_fiiS1_S1_i T
_ZN5ImGui13EndChildFrameEv T
_ZN5ImGui13GetCursorPosXEv T
_ZN5ImGui13GetCursorPosYEv T
_ZN5ImGui13GetFrameCountEv T
_ZN5ImGui13GetIDWithSeedEPKcS1_j T
_ZN5ImGui13GetScrollMaxXEv T
_ZN5ImGui13GetScrollMaxYEv T
_ZN5ImGui13GetWindowSizeEv T
_ZN5ImGui13ImageButtonExEjPvRK6ImVec2S3_S3_S3_RK6ImVec4S6_ T
_ZN5ImGui13IsItemClickedEi T
_ZN5ImGui13IsItemFocusedEv T
_ZN5ImGui13IsItemHoveredEi T
_ZN5ImGui13IsItemVisibleEv T
_ZN5ImGui13IsKeyReleasedEi T
_ZN5ImGui13IsRectVisibleERK6ImVec2 T
_ZN5ImGui13IsRectVisibleERK6ImVec2S2_ T
_ZN5ImGui13IsWindowAboveEP11ImGuiWindowS1_ T
_ZN5ImGui13ItemHoverableERK6ImRectj T
_ZN5ImGui13ListBoxHeaderEPKcii T
_ZN5ImGui13NavInitWindowEP11ImGuiWindowb T
_ZN5ImGui13PlotHistogramEPKcPFfPviES2_iiS1_ff6ImVec2 T
_ZN5ImGui13PlotHistogramEPKcPKfiiS1_ff6ImVec2i T
_ZN5ImGui13PopFocusScopeEv T
_ZN5ImGui13PopStyleColorEi T
_ZN5ImGui13PushItemWidthEf T
_ZN5ImGui13SetCursorPosXEf T
_ZN5ImGui13SetCursorPosYEf T
_ZN5ImGui13SetWindowSizeEP11ImGuiWindowRK6ImVec2i T
_ZN5ImGui13SetWindowSizeEPKcRK6ImVec2i T
_ZN5ImGui13SetWindowSizeERK6ImVec2i T
_ZN5ImGui13ShowFontAtlasEP11ImFontAtlas T
_ZN5ImGui13ShowUserGuideEv T
_ZN5ImGui13SliderScalarNEPKciPviPKvS4_S1_f T
_ZN5ImGui13SliderScalarNEPKciPviPKvS4_S1_i T
_ZN5ImGui13TabItemButtonEPKci T
_ZN5ImGui13TableBeginRowEP10ImGuiTable T
_ZN5ImGui13TableFindByIDEj T
_ZN5ImGui13TempInputTextERK6ImRectjPKcPcii T
_ZN5ImGui13TextDisabledVEPKcP13__va_list_tag T
_ZN5ImGui13VSliderScalarEPKcRK6ImVec2iPvPKvS7_S1_i T
_ZN5ImGui14AddContextHookEP12ImGuiContextPK16ImGuiContextHook T
_ZN5ImGui14BeginTooltipExEii T
_ZN5ImGui14ButtonBehaviorERK6ImRectjPbS3_i T
_ZN5ImGui14CheckboxFlagsTIiEEbPKcPT_S3_ W
_ZN5ImGui14CheckboxFlagsTIjEEbPKcPT_S3_ W
_ZN5ImGui14CheckboxFlagsTIxEEbPKcPT_S3_ W
_ZN5ImGui14CheckboxFlagsTIyEEbPKcPT_S3_ W
_ZN5ImGui14CollapseButtonEjRK6ImVec2 T
_ZN5ImGui14DebugNodeTableEP10ImGuiTable T
_ZN5ImGui14DestroyContextEP12ImGuiContext T
_ZN5ImGui14EndMainMenuBarEv T
_ZN5ImGui14FindWindowByIDEj T
_ZN5ImGui14GetColumnIndexEv T
_ZN5ImGui14GetColumnWidthEi T
_ZN5ImGui14GetDefaultFontEv W
_ZN5ImGui14GetFrameHeightEv T
_ZN5ImGui14GetItemRectMaxEv T
_ZN5ImGui14GetItemRectMinEv T
_ZN5ImGui14GetMouseCursorEv T
_ZN5ImGui14GetWindowWidthEv T
_ZN5ImGui14IsAnyMouseDownEv T
_ZN5ImGui14IsMouseClickedEib T
_ZN5ImGui14IsNavInputDownEi W
_ZN5ImGui14IsNavInputTestEi18ImGuiInputReadMode W
_ZN5ImGui14LogToClipboardEi T
_ZN5ImGui14MarkItemEditedEj T
_ZN5ImGui14PopTextWrapPosEv T
_ZN5ImGui14PushFocusScopeEj T
_ZN5ImGui14PushOverrideIDEj T
_ZN5ImGui14PushStyleColorEij T
_ZN5ImGui14PushStyleColorEiRK6ImVec4 T
_ZN5ImGui14ScrollToRectExEP11ImGuiWindowRK6ImRecti T
_ZN5ImGui14SetColumnWidthEif T
_ZN5ImGui14SetCurrentFontEP6ImFont T
_ZN5ImGui14SetMouseCursorEi T
_ZN5ImGui14SetScrollHereXEf T
_ZN5ImGui14SetScrollHereYEf T
_ZN5ImGui14SetWindowFocusEPKc T
_ZN5ImGui14SetWindowFocusEv T
_ZN5ImGui14ShowDemoWindowEPb T
_ZN5ImGui14SliderBehaviorERK6ImRectjiPvPKvS5_PKciPS0_ T
_ZN5ImGui14TabBarCloseTabEP11ImGuiTabBarP12ImGuiTabItem T
_ZN5ImGui14TableBeginCellEP10ImGuiTablei T
_ZN5ImGui15BeginChildFrameEjRK6ImVec2i T
_ZN5ImGui15BeginComboPopupEjRK6ImRecti T
_ZN5ImGui15BeginPopupModalEPKcPbi T
_ZN5ImGui15DataTypeApplyOpEiiPvPKvS2_ T
_ZN5ImGui15DataTypeCompareEiPKvS1_ T
_ZN5ImGui15DataTypeGetInfoEi T
_ZN5ImGui15DebugHookIdInfoEjiPKvS1_ T
_ZN5ImGui15DebugNodeTabBarEP11ImGuiTabBarPKc T
_ZN5ImGui15DebugNodeWindowEP11ImGuiWindowPKc T
_ZN5ImGui15DragFloatRange2EPKcPfS2_fffS1_S1_i T
_ZN5ImGui15EndComboPreviewEv T
_ZN5ImGui15GetColumnOffsetEi T
_ZN5ImGui15GetColumnsCountEv T
_ZN5ImGui15GetItemRectSizeEv T
_ZN5ImGui15GetMainViewportEv T
_ZN5ImGui15GetNavInputNameEi T
_ZN5ImGui15GetStateStorageEv T
_ZN5ImGui15GetWindowHeightEv T
_ZN5ImGui15InvisibleButtonEPKcRK6ImVec2i T
_ZN5ImGui15IsAnyItemActiveEv T
_ZN5ImGui15IsItemActivatedEv T
_ZN5ImGui15IsMouseDraggingEif T
_ZN5ImGui15IsMousePosValidEPK6ImVec2 T
_ZN5ImGui15IsMouseReleasedEi T
_ZN5ImGui15IsWindowChildOfEP11ImGuiWindowS1_b T
_ZN5ImGui15IsWindowFocusedEi T
_ZN5ImGui15IsWindowHoveredEi T
_ZN5ImGui15LogRenderedTextEPK6ImVec2PKcS4_ T
_ZN5ImGui15PopButtonRepeatEv T
_ZN5ImGui15PushTextWrapPosEf T
_ZN5ImGui15RenderCheckMarkEP10ImDrawList6ImVec2jf T
_ZN5ImGui15SetColumnOffsetEif T
_ZN5ImGui15SetLastItemDataEjiiRK6ImRect T
_ZN5ImGui15SetNextItemOpenEbi T
_ZN5ImGui15SetStateStorageEP12ImGuiStorage T
_ZN5ImGui15ShowAboutWindowEPb T
_ZN5ImGui15ShowStyleEditorEP10ImGuiStyle T
_ZN5ImGui15SliderBehaviorTIdddEEbRK6ImRectjiPT_S4_S4_PKciPS1_ W
_ZN5ImGui15SliderBehaviorTIfffEEbRK6ImRectjiPT_S4_S4_PKciPS1_ W
_ZN5ImGui15SliderBehaviorTIiifEEbRK6ImRectjiPT_S4_S4_PKciPS1_ W
_ZN5ImGui15SliderBehaviorTIjifEEbRK6ImRectjiPT_S4_S4_PKciPS1_ W
_ZN5ImGui15SliderBehaviorTIxxdEEbRK6ImRectjiPT_S4_S4_PKciPS1_ W
_ZN5ImGui15SliderBehaviorTIyxdEEbRK6ImRectjiPT_S4_S4_PKciPS1_ W
_ZN5ImGui15StyleColorsDarkEP10ImGuiStyle T
_ZN5ImGui15TabBarRemoveTabEP11ImGuiTabBarj T
_ZN5ImGui15TabItemCalcSizeEPKcb T
_ZN5ImGui15TableHeadersRowEv T
_ZN5ImGui15TableNextColumnEv T
_ZN5ImGui15TableSetBgColorEiji T
_ZN5ImGui15TempInputScalarERK6ImRectjPKciPvS4_PKvS7_ T
_ZN5ImGui15TextUnformattedEPKcS1_ T
_ZN5ImGui16BeginMainMenuBarEv T
_ZN5ImGui16CalcListClippingEifPiS0_ T
_ZN5ImGui16CallContextHooksEP12ImGuiContext20ImGuiContextHookType T
_ZN5ImGui16ClearIniSettingsEv T
_ZN5ImGui16CollapsingHeaderEPKci T
_ZN5ImGui16CollapsingHeaderEPKcPbi T
_ZN5ImGui16DebugNodeColumnsEP15ImGuiOldColumns T
_ZN5ImGui16DebugNodeStorageEP12ImGuiStoragePKc T
_ZN5ImGui16FindWindowByNameEPKc T
_ZN5ImGui16GetClipboardTextEv T
_ZN5ImGui16GetCurrentWindowEv W
_ZN5ImGui16IsAnyItemFocusedEv T
_ZN5ImGui16IsAnyItemHoveredEv T
_ZN5ImGui16PushButtonRepeatEb T
_ZN5ImGui16SetClipboardTextEPKc T
_ZN5ImGui16SetNextItemWidthEf T
_ZN5ImGui16SetNextWindowPosERK6ImVec2iS2_ T
_ZN5ImGui16SetTabItemClosedEPKc T
_ZN5ImGui16ShowFontSelectorEPKc T
_ZN5ImGui16SplitterBehaviorERK6ImRectj9ImGuiAxisPfS4_ffff T
_ZN5ImGui16StyleColorsLightEP10ImGuiStyle T
_ZN5ImGui16TableDrawBordersEP10ImGuiTable T
_ZN5ImGui16TableGetRowIndexEv T
_ZN5ImGui16TableSetupColumnEPKcifj T
_ZN5ImGui16TreeNodeBehaviorEjiPKcS1_ T
_ZN5ImGui17BeginComboPreviewEv T
_ZN5ImGui17CloseCurrentPopupEv T
_ZN5ImGui17ClosePopupToLevelEib T
_ZN5ImGui17DebugNodeDrawListEP11ImGuiWindowPK10ImDrawListPKc T
_ZN5ImGui17DebugNodeViewportEP14ImGuiViewportP T
_ZN5ImGui17EndDragDropSourceEv T
_ZN5ImGui17EndDragDropTargetEv T
_ZN5ImGui17GetCurrentContextEv T
_ZN5ImGui17GetCursorStartPosEv T
_ZN5ImGui17GetInputTextStateEj W
_ZN5ImGui17GetMouseDragDeltaEif T
_ZN5ImGui17GetNavInputAmountEi18ImGuiInputReadMode T
_ZN5ImGui17GetStyleColorNameEi T
_ZN5ImGui17GetStyleColorVec4Ei T
_ZN5ImGui17GetTextLineHeightEv T
_ZN5ImGui17GetWindowDrawListEv T
_ZN5ImGui17InputTextWithHintEPKcS1_PcmiPFiP26ImGuiInputTextCallbackDataEPv T
_ZN5ImGui17InputTextWithHintEPKcS1_PNSt7__cxx1112basic_stringIcSt11char_traitsIcESaIcEEEiPFiP26ImGuiInputTextCallbackDataEPv T
_ZN5ImGui17IsItemDeactivatedEv T
_ZN5ImGui17IsItemToggledOpenEv T
_ZN5ImGui17IsWindowAppearingEv T
_ZN5ImGui17IsWindowCollapsedEv T
_ZN5ImGui17RemoveContextHookEP12ImGuiContextj T
_ZN5ImGui17RenderFrameBorderE6ImVec2S0_f T
_ZN5ImGui17RenderMouseCursorEP10ImDrawList6ImVec2fijjj T
_ZN5ImGui17RenderTextClippedERK6ImVec2S2_PKcS4_PS1_S2_PK6ImRect T
_ZN5ImGui17RenderTextWrappedE6ImVec2PKcS2_f T
_ZN5ImGui17SetCurrentContextEP12ImGuiContext T
_ZN5ImGui17SetNextWindowSizeERK6ImVec2i T
_ZN5ImGui17SetScrollFromPosXEff T
_ZN5ImGui17SetScrollFromPosXEP11ImGuiWindowff T
_ZN5ImGui17SetScrollFromPosYEff T
_ZN5ImGui17SetScrollFromPosYEP11ImGuiWindowff T
_ZN5ImGui17ShowMetricsWindowEPb T
_ZN5ImGui17ShowStyleSelectorEPKc T
_ZN5ImGui17TabBarFindTabByIDEP11ImGuiTabBarj T
_ZN5ImGui17TabItemBackgroundEP10ImDrawListRK6ImRectij T
_ZN5ImGui17TableGetSortSpecsEv T
_ZN5ImGui17TableLoadSettingsEP10ImGuiTable T
_ZN5ImGui17TableSaveSettingsEP10ImGuiTable T
_ZN5ImGui17TableUpdateLayoutEP10ImGuiTable T
_ZN5ImGui17TempInputIsActiveEj W
_ZN5ImGui17UpdateInputEventsEb T
_ZN5ImGui18FindWindowSettingsEj T
_ZN5ImGui18GetCursorScreenPosEv T
_ZN5ImGui18GetDragDropPayloadEv T
_ZN5ImGui18InputTextMultilineEPKcPcmRK6ImVec2iPFiP26ImGuiInputTextCallbackDataEPv T
_ZN5ImGui18InputTextMultilineEPKcPNSt7__cxx1112basic_stringIcSt11char_traitsIcESaIcEEERK6ImVec2iPFiP26ImGuiInputTextCallbackDataEPv T
_ZN5ImGui18IsActiveIdUsingKeyEi W
_ZN5ImGui18PushColumnClipRectEi T
_ZN5ImGui18RenderNavHighlightERK6ImRectji T
_ZN5ImGui18RenderTextEllipsisEP10ImDrawListRK6ImVec2S4_ffPKcS6_PS3_ T
_ZN5ImGui18SetCursorScreenPosERK6ImVec2 T
_ZN5ImGui18SetDragDropPayloadEPKcPKvmi T
_ZN5ImGui18SetNextWindowFocusEv T
_ZN5ImGui18SetWindowCollapsedEbi T
_ZN5ImGui18SetWindowCollapsedEP11ImGuiWindowbi T
_ZN5ImGui18SetWindowCollapsedEPKcbi T
_ZN5ImGui18SetWindowFontScaleEf T
_ZN5ImGui18ShadeVertsLinearUVEP10ImDrawListiiRK6ImVec2S4_S4_S4_b T
_ZN5ImGui18StyleColorsClassicEP10ImGuiStyle T
_ZN5ImGui18TabBarQueueReorderEP11ImGuiTabBarPK12ImGuiTabItemi T
_ZN5ImGui18TableGetCellBgRectEPK10ImGuiTablei T
_ZN5ImGui18TableGetColumnNameEi T
_ZN5ImGui18TableGetColumnNameEPK10ImGuiTablei T
_ZN5ImGui18TableResetSettingsEP10ImGuiTable T
_ZN5ImGui18TableUpdateBordersEP10ImGuiTable T
_ZN5ImGui18TreePushOverrideIDEj T
_ZN5ImGui18WindowRectAbsToRelEP11ImGuiWindowRK6ImRect W
_ZN5ImGui18WindowRectRelToAbsEP11ImGuiWindowRK6ImRect W
_ZN5ImGui19BeginDragDropSourceEi T
_ZN5ImGui19BeginDragDropTargetEv T
_ZN5ImGui19CalcWrapWidthForPosERK6ImVec2f T
_ZN5ImGui19CaptureMouseFromAppEb T
_ZN5ImGui19FindOrCreateColumnsEP11ImGuiWindowj T
_ZN5ImGui19FindRenderedTextEndEPKcS1_ T
_ZN5ImGui19FindSettingsHandlerEPKc T
_ZN5ImGui19GetContentRegionMaxEv T
_ZN5ImGui19GetKeyPressedAmountEiff T
_ZN5ImGui19GetNavInputAmount2dEi18ImGuiInputReadModeff T
_ZN5ImGui19IsMouseHoveringRectERK6ImVec2S2_b T
_ZN5ImGui19RenderTextClippedExEP10ImDrawListRK6ImVec2S4_PKcS6_PS3_S4_PK6ImRect T
_ZN5ImGui19ResetMouseDragDeltaEi T
_ZN5ImGui19SetActiveIdUsingKeyEi W
_ZN5ImGui19SetColorEditOptionsEi T
_ZN5ImGui19SetItemAllowOverlapEv T
_ZN5ImGui19SetItemDefaultFocusEv T
_ZN5ImGui19SetNextWindowScrollERK6ImVec2 T
_ZN5ImGui19ShowStackToolWindowEPb T
_ZN5ImGui19TableGetColumnCountEv T
_ZN5ImGui19TableGetColumnFlagsEi T
_ZN5ImGui19TableGetColumnIndexEv T
_ZN5ImGui19TableSetColumnIndexEi T
_ZN5ImGui19TableSetColumnWidthEif T
_ZN5ImGui19TableSettingsCreateEji T
_ZN5ImGui19TableSortSpecsBuildEP10ImGuiTable T
_ZN5ImGui20BeginViewportSideBarEPKcP13ImGuiViewportifi T
_ZN5ImGui20ColorConvertHSVtoRGBEfffRfS0_S0_ T
_ZN5ImGui20ColorConvertRGBtoHSVEfffRfS0_S0_ T
_ZN5ImGui20DataTypeFormatStringEPciiPKvPKc T
_ZN5ImGui20DebugNodeWindowsListEP8ImVectorIP11ImGuiWindowEPKc T
_ZN5ImGui20DebugStartItemPickerEv W
_ZN5ImGui20GetCurrentWindowReadEv W
_ZN5ImGui20GetMergedKeyModFlagsEv T
_ZN5ImGui20GetMouseClickedCountEi T
_ZN5ImGui20GetTopMostPopupModalEv T
_ZN5ImGui20GetWindowScrollbarIDEP11ImGuiWindow9ImGuiAxis T
_ZN5ImGui20IsMouseDoubleClickedEi T
_ZN5ImGui20IsWindowNavFocusableEP11ImGuiWindow T
_ZN5ImGui20MarkIniSettingsDirtyEP11ImGuiWindow T
_ZN5ImGui20MarkIniSettingsDirtyEv T
_ZN5ImGui20NavMoveRequestCancelEv T
_ZN5ImGui20NavMoveRequestSubmitEiiii T
_ZN5ImGui20OpenPopupOnItemClickEPKci T
_ZN5ImGui20PopColumnsBackgroundEv T
_ZN5ImGui20PushMultiItemsWidthsEif T
_ZN5ImGui20ScaleRatioFromValueTIdddEEfiT_S1_S1_bff W
_ZN5ImGui20ScaleRatioFromValueTIfffEEfiT_S1_S1_bff W
_ZN5ImGui20ScaleRatioFromValueTIiifEEfiT_S1_S1_bff W
_ZN5ImGui20ScaleRatioFromValueTIjifEEfiT_S1_S1_bff W
_ZN5ImGui20ScaleRatioFromValueTIxxdEEfiT_S1_S1_bff W
_ZN5ImGui20ScaleRatioFromValueTIyxdEEfiT_S1_S1_bff W
_ZN5ImGui20ScaleValueFromRatioTIdddEET_ifS1_S1_bff W
_ZN5ImGui20ScaleValueFromRatioTIfffEET_ifS1_S1_bff W
_ZN5ImGui20ScaleValueFromRatioTIiifEET_ifS1_S1_bff W
_ZN5ImGui20ScaleValueFromRatioTIjifEET_ifS1_S1_bff W
_ZN5ImGui20ScaleValueFromRatioTIxxdEET_ifS1_S1_bff W
_ZN5ImGui20ScaleValueFromRatioTIyxdEET_ifS1_S1_bff W
_ZN5ImGui20SetKeyboardFocusHereEi T
_ZN5ImGui20SetNextWindowBgAlphaEf T
_ZN5ImGui20SetWindowHitTestHoleEP11ImGuiWindowRK6ImVec2S4_ T
_ZN5ImGui20TabBarProcessReorderEP11ImGuiTabBar T
_ZN5ImGui20TableBeginInitMemoryEP10ImGuiTablei T
_ZN5ImGui20TableDrawContextMenuEP10ImGuiTable T
_ZN5ImGui20TableOpenContextMenuEi T
_ZN5ImGui21AcceptDragDropPayloadEPKci T
_ZN5ImGui21BeginPopupContextItemEPKci T
_ZN5ImGui21BeginPopupContextVoidEPKci T
_ZN5ImGui21ClosePopupsOverWindowEP11ImGuiWindowb T
_ZN5ImGui21ColorEditOptionsPopupEPKfi T
_ZN5ImGui21DataTypeApplyFromTextEPKciPvS1_ T
_ZN5ImGui21GetAllocatorFunctionsEPPFPvmS0_EPPFvS0_S0_EPS0_ T
_ZN5ImGui21GetBackgroundDrawListEP13ImGuiViewport T
_ZN5ImGui21GetBackgroundDrawListEv T
_ZN5ImGui21GetContentRegionAvailEv T
_ZN5ImGui21GetDrawListSharedDataEv T
_ZN5ImGui21GetForegroundDrawListEP11ImGuiWindow W
_ZN5ImGui21GetForegroundDrawListEP13ImGuiViewport T
_ZN5ImGui21GetForegroundDrawListEv T
_ZN5ImGui21IsActiveIdUsingNavDirEi W
_ZN5ImGui21NavMoveRequestForwardEiiii T
_ZN5ImGui21PopAllowKeyboardFocusEv T
_ZN5ImGui21PushColumnsBackgroundEv T
_ZN5ImGui21RenderArrowPointingAtEP10ImDrawList6ImVec2S2_ij T
_ZN5ImGui21SaveIniSettingsToDiskEPKc T
_ZN5ImGui21SetAllocatorFunctionsEPFPvmS0_EPFvS0_S0_ES0_ T
_ZN5ImGui21TableGetBoundSettingsEP10ImGuiTable T
_ZN5ImGui21TableGetHoveredColumnEv T
_ZN5ImGui21TableSetColumnEnabledEib T
_ZN5ImGui21TableSettingsFindByIDEj T
_ZN5ImGui22CaptureKeyboardFromAppEb T
_ZN5ImGui22DebugNodeTableSettingsEP18ImGuiTableSettings T
_ZN5ImGui22FindWindowDisplayIndexEP11ImGuiWindow T
_ZN5ImGui22GetContentRegionMaxAbsEv T
_ZN5ImGui22GetFontTexUvWhitePixelEv T
_ZN5ImGui22GetWindowScrollbarRectEP11ImGuiWindow9ImGuiAxis T
_ZN5ImGui22IsItemToggledSelectionEv T
_ZN5ImGui22PushAllowKeyboardFocusEb T
_ZN5ImGui22RenderRectFilledRangeHEP10ImDrawListRK6ImRectjfff T
_ZN5ImGui22RoundScalarWithFormatTIddEET_PKciS1_ W
_ZN5ImGui22RoundScalarWithFormatTIffEET_PKciS1_ W
_ZN5ImGui22RoundScalarWithFormatTIiiEET_PKciS1_ W
_ZN5ImGui22RoundScalarWithFormatTIjiEET_PKciS1_ W
_ZN5ImGui22RoundScalarWithFormatTIxxEET_PKciS1_ W
_ZN5ImGui22RoundScalarWithFormatTIyxEET_PKciS1_ W
_ZN5ImGui22SetItemUsingMouseWheelEv T
_ZN5ImGui22SetNextWindowCollapsedEbi T
_ZN5ImGui22StartMouseMovingWindowEP11ImGuiWindow T
_ZN5ImGui22TableGcCompactSettingsEv T
_ZN5ImGui22TableGetColumnResizeIDEPK10ImGuiTableii T
_ZN5ImGui22TableGetMaxColumnWidthEPK10ImGuiTablei T
_ZN5ImGui22TableMergeDrawChannelsEP10ImGuiTable T
_ZN5ImGui22TableSetupDrawChannelsEP10ImGuiTable T
_ZN5ImGui22TableSetupScrollFreezeEii T
_ZN5ImGui22TableSortSpecsSanitizeEP10ImGuiTable T
_ZN5ImGui22TreeNodeBehaviorIsOpenEji T
_ZN5ImGui23AlignTextToFramePaddingEv T
_ZN5ImGui23BeginPopupContextWindowEPKci T
_ZN5ImGui23BringWindowToFocusFrontEP11ImGuiWindow T
_ZN5ImGui23ClosePopupsExceptModalsEv T
_ZN5ImGui23ColorConvertFloat4ToU32ERK6ImVec4 T
_ZN5ImGui23ColorConvertU32ToFloat4Ej T
_ZN5ImGui23ColorPickerOptionsPopupEPKfi T
_ZN5ImGui23CreateNewWindowSettingsEPKc T
_ZN5ImGui23DebugNodeWindowSettingsEP19ImGuiWindowSettings T
_ZN5ImGui23GetColumnNormFromOffsetEPK15ImGuiOldColumnsf T
_ZN5ImGui23GetColumnOffsetFromNormEPK15ImGuiOldColumnsf T
_ZN5ImGui23GetWindowResizeBorderIDEP11ImGuiWindowi T
_ZN5ImGui23GetWindowResizeCornerIDEP11ImGuiWindowi T
_ZN5ImGui23IsActiveIdUsingNavInputEi W
_ZN5ImGui23LoadIniSettingsFromDiskEPKc T
_ZN5ImGui23SaveIniSettingsToMemoryEPm T
_ZN5ImGui23TableBeginApplyRequestsEP10ImGuiTable T
_ZN5ImGui23TableGetColumnWidthAutoEP10ImGuiTableP16ImGuiTableColumn T
_ZN5ImGui23TableGetHeaderRowHeightEv T
_ZN5ImGui24BringWindowToDisplayBackEP11ImGuiWindow T
_ZN5ImGui24IsMouseDragPastThresholdEif T
_ZN5ImGui24LogSetNextTextDecorationEPKcS1_ T
_ZN5ImGui24RenderRectFilledWithHoleEP10ImDrawList6ImRectS2_jf T
_ZN5ImGui24SetNextWindowContentSizeERK6ImVec2 T
_ZN5ImGui25BeginDragDropTargetCustomERK6ImRectj T
_ZN5ImGui25BringWindowToDisplayFrontEP11ImGuiWindow T
_ZN5ImGui25CalcTypematicRepeatAmountEffff T
_ZN5ImGui25CalcWindowNextAutoFitSizeEP11ImGuiWindow T
_ZN5ImGui25ErrorCheckEndFrameRecoverEPFvPvPKczES0_ T
_ZN5ImGui25FindBestWindowPosForPopupEP11ImGuiWindow T
_ZN5ImGui25GetFrameHeightWithSpacingEv T
_ZN5ImGui25GetPopupAllowedExtentRectEP11ImGuiWindow T
_ZN5ImGui25GetTreeNodeToLabelSpacingEv T
_ZN5ImGui25GetWindowContentRegionMaxEv T
_ZN5ImGui25GetWindowContentRegionMinEv T
_ZN5ImGui25LoadIniSettingsFromMemoryEPKcm T
_ZN5ImGui25NavInitRequestApplyResultEv T
_ZN5ImGui25NavMoveRequestApplyResultEv T
_ZN5ImGui25NavMoveRequestTryWrappingEP11ImGuiWindowi T
_ZN5ImGui25TablePopBackgroundChannelEv T
_ZN5ImGui26BringWindowToDisplayBehindEP11ImGuiWindowS1_ T
_ZN5ImGui26ErrorCheckEndWindowRecoverEPFvPvPKczES0_ T
_ZN5ImGui26FindOrCreateWindowSettingsEPKc T
_ZN5ImGui26FocusTopMostWindowUnderOneEP11ImGuiWindowS1_ T
_ZN5ImGui26IsItemDeactivatedAfterEditEv T
_ZN5ImGui26IsWindowWithinBeginStackOfEP11ImGuiWindowS1_ T
_ZN5ImGui26SetActiveIdUsingNavAndKeysEv T
_ZN5ImGui26TabItemLabelAndCloseButtonEP10ImDrawListRK6ImRecti6ImVec2PKcjjbPbS8_ T
_ZN5ImGui26TablePushBackgroundChannelEv T
_ZN5ImGui26TableSetColumnWidthAutoAllEP10ImGuiTable T
_ZN5ImGui27FindBestWindowPosForPopupExERK6ImVec2S2_PiRK6ImRectS6_24ImGuiPopupPositionPolicy T
_ZN5ImGui27TableFixColumnSortDirectionEP10ImGuiTableP16ImGuiTableColumn T
_ZN5ImGui27TableSetColumnSortDirectionEiib T
_ZN5ImGui27TableSettingsInstallHandlerEP12ImGuiContext T
_ZN5ImGui28DebugRenderViewportThumbnailEP10ImDrawListP14ImGuiViewportPRK6ImRect T
_ZN5ImGui28GetTextLineHeightWithSpacingEv T
_ZN5ImGui28NavMoveRequestButNoResultYetEv T
_ZN5ImGui28SetNextWindowSizeConstraintsERK6ImVec2S2_PFvP21ImGuiSizeCallbackDataEPv T
_ZN5ImGui29GcAwakeTransientWindowBuffersEP11ImGuiWindow T
_ZN5ImGui29GcCompactTransientMiscBuffersEv T
_ZN5ImGui29TableSetColumnWidthAutoSingleEP10ImGuiTablei T
_ZN5ImGui30DebugCheckVersionAndDataLayoutEPKcmmmmmm T
_ZN5ImGui30GetTopMostAndVisiblePopupModalEv T
_ZN5ImGui30IsDragDropPayloadBeingAcceptedEv T
_ZN5ImGui30TabBarQueueReorderFromMousePosEP11ImGuiTabBarPK12ImGuiTabItem6ImVec2 T
_ZN5ImGui30TableGcCompactTransientBuffersEP10ImGuiTable T
_ZN5ImGui30TableGcCompactTransientBuffersEP18ImGuiTableTempData T
_ZN5ImGui30UpdateWindowParentAndRootLinksEP11ImGuiWindowiS1_ T
_ZN5ImGui31GcCompactTransientWindowBuffersEP11ImGuiWindow T
_ZN5ImGui31TableGetColumnNextSortDirectionEP16ImGuiTableColumn T
_ZN5ImGui31UpdateMouseMovingWindowEndFrameEv T
_ZN5ImGui31UpdateMouseMovingWindowNewFrameEv T
_ZN5ImGui32GetMousePosOnOpeningCurrentPopupEv T
_ZN5ImGui33NavMoveRequestResolveWithLastItemEP16ImGuiNavItemData T
_ZN5ImGui33SetWindowClipRectBeforeSetChannelEP11ImGuiWindowRK6ImRect T
_ZN5ImGui33TableUpdateColumnsWeightFromWidthEP10ImGuiTable T
_ZN5ImGui34UpdateHoveredWindowAndCaptureFlagsEv T
_ZN5ImGui36RenderColorRectWithAlphaCheckerboardEP10ImDrawList6ImVec2S2_jfS2_fi T
_ZN5ImGui38DebugNodeDrawCmdShowMeshAndBoundingBoxEP10ImDrawListPKS0_PK9ImDrawCmdbb T
_ZN5ImGui38DebugNodeWindowsListByBeginStackParentEPP11ImGuiWindowiS1_ T
_ZN5ImGui38ShadeVertsLinearColorGradientKeepAlphaEP10ImDrawListii6ImVec2S2_jj T
_ZN5ImGui3EndEv T
_ZN5ImGui43FindBottomMostVisibleWindowWithinBeginStackEP11ImGuiWindow T
_ZN5ImGui4TextEPKcz T
_ZN5ImGui5BeginEPKcPbi T
_ZN5ImGui5ComboEPKcPiPFbPviPS1_ES3_ii T
_ZN5ImGui5ComboEPKcPiPKS1_ii T
_ZN5ImGui5ComboEPKcPiS1_i T
_ZN5ImGui5DummyERK6ImVec2 T
_ZN5ImGui5GetIDEPKc T
_ZN5ImGui5GetIDEPKcS1_ T
_ZN5ImGui5GetIDEPKv T
_ZN5ImGui5GetIOEv T
_ZN5ImGui5ImageEPvRK6ImVec2S3_S3_RK6ImVec4S6_ T
_ZN5ImGui5PopIDEv T
_ZN5ImGui5TextVEPKcP13__va_list_tag T
_ZN5ImGui5ValueEPKcb T
_ZN5ImGui5ValueEPKcfS1_ T
_ZN5ImGui5ValueEPKci T
_ZN5ImGui5ValueEPKcj T
_ZN5ImGui6BulletEv T
_ZN5ImGui6ButtonEPKcRK6ImVec2 T
_ZN5ImGui6IndentEf T
_ZN5ImGui6PlotExE13ImGuiPlotTypePKcPFfPviES3_iiS2_ff6ImVec2 T
_ZN5ImGui6PushIDEi T
_ZN5ImGui6PushIDEPKc T
_ZN5ImGui6PushIDEPKcS1_ T
_ZN5ImGui6PushIDEPKv T
_ZN5ImGui6RenderEv T
_ZN5ImGui6TextExEPKcS1_i T
_ZN5ImGui7ColumnsEiPKcb T
_ZN5ImGui7DragIntEPKcPifiiS1_i T
_ZN5ImGui7EndMenuEv T
_ZN5ImGui7GetFontEv T
_ZN5ImGui7GetTimeEv T
_ZN5ImGui7ItemAddERK6ImRectjPS1_i T
_ZN5ImGui7ListBoxEPKcPiPFbPviPS1_ES3_ii T
_ZN5ImGui7ListBoxEPKcPiPKS1_ii T
_ZN5ImGui7LogTextEPKcz T
_ZN5ImGui7MemFreeEPv T
_ZN5ImGui7NewLineEv T
_ZN5ImGui7PopFontEv T
_ZN5ImGui7SpacingEv T
_ZN5ImGui7TreePopEv T
_ZN5ImGui8ButtonExEPKcRK6ImVec2i T
_ZN5ImGui8CheckboxEPKcPb T
_ZN5ImGui8DragInt2EPKcPifiiS1_i T
_ZN5ImGui8DragInt3EPKcPifiiS1_i T
_ZN5ImGui8DragInt4EPKcPifiiS1_i T
_ZN5ImGui8EndChildEv T
_ZN5ImGui8EndComboEv T
_ZN5ImGui8EndFrameEv T
_ZN5ImGui8EndGroupEv T
_ZN5ImGui8EndPopupEv T
_ZN5ImGui8EndTableEv T
_ZN5ImGui8GetStyleEv T
_ZN5ImGui8InputIntEPKcPiiii T
_ZN5ImGui8ItemSizeERK6ImRectf T
_ZN5ImGui8ItemSizeERK6ImVec2f T
_ZN5ImGui8LogBeginE12ImGuiLogTypei T
_ZN5ImGui8LogTextVEPKcP13__va_list_tag T
_ZN5ImGui8LogToTTYEi T
_ZN5ImGui8MemAllocEm T
_ZN5ImGui8MenuItemEPKcS1_bb T
_ZN5ImGui8MenuItemEPKcS1_Pbb T
_ZN5ImGui8NewFrameEv T
_ZN5ImGui8PushFontEP6ImFont T
_ZN5ImGui8SameLineEff T
_ZN5ImGui8SetNavIDEj13ImGuiNavLayerjRK6ImRect T
_ZN5ImGui8ShutdownEP12ImGuiContext T
_ZN5ImGui8TreeNodeEPKc T
_ZN5ImGui8TreeNodeEPKcS1_z T
_ZN5ImGui8TreeNodeEPKvPKcz T
_ZN5ImGui8TreePushEPKc T
_ZN5ImGui8TreePushEPKv T
_ZN5ImGui8UnindentEf T
_ZN5ImGui9BeginMenuEPKcb T
_ZN5ImGui9DragFloatEPKcPffffS1_i T
_ZN5ImGui9EndTabBarEv T
_ZN5ImGui9InputInt2EPKcPii T
_ZN5ImGui9InputInt3EPKcPii T
_ZN5ImGui9InputInt4EPKcPii T
_ZN5ImGui9InputTextEPKcPcmiPFiP26ImGuiInputTextCallbackDataEPv T
_ZN5ImGui9InputTextEPKcPNSt7__cxx1112basic_stringIcSt11char_traitsIcESaIcEEEiPFiP26ImGuiInputTextCallbackDataEPv T
_ZN5ImGui9IsKeyDownEi T
_ZN5ImGui9LabelTextEPKcS1_z T
_ZN5ImGui9LogFinishEv T
_ZN5ImGui9LogToFileEiPKc T
_ZN5ImGui9OpenPopupEji T
_ZN5ImGui9OpenPopupEPKci T
_ZN5ImGui9PlotLinesEPKcPFfPviES2_iiS1_ff6ImVec2 T
_ZN5ImGui9PlotLinesEPKcPKfiiS1_ff6ImVec2i T
_ZN5ImGui9ScrollbarE9ImGuiAxis T
_ZN5ImGui9SeparatorEv T
_ZN5ImGui9SliderIntEPKcPiiiS1_i T
_ZN5ImGui9TabItemExEP11ImGuiTabBarPKcPbi T
_ZN5ImGui9TreeNodeVEPKcS1_P13__va_list_tag T
_ZN5ImGui9TreeNodeVEPKvPKcP13__va_list_tag T
_ZN6ImFont12AddRemapCharEttb T
_ZN6ImFont15ClearOutputDataEv T
_ZN6ImFont15SetGlyphVisibleEtb T
_ZN6ImFont16BuildLookupTableEv T
_ZN6ImFont18IsGlyphRangeUnusedEjj T
_ZN6ImFont8AddGlyphEPK12ImFontConfigtfffffffff T
_ZN6ImFont9GrowIndexEi T
_ZN6ImFontC1Ev T
_ZN6ImFontC2Ev T
_ZN6ImFontD1Ev T
_ZN6ImFontD2Ev T
_ZN6ImPoolI10ImGuiTableE10GetByIndexEi W
_ZN6ImPoolI10ImGuiTableE13GetOrAddByKeyEj W
_ZN6ImPoolI10ImGuiTableE13TryGetMapDataEi W
_ZN6ImPoolI10ImGuiTableE3AddEv W
_ZN6ImPoolI10ImGuiTableE5ClearEv W
_ZN6ImPoolI10ImGuiTableE6RemoveEji W
_ZN6ImPoolI10ImGuiTableE6RemoveEjPKS0_ W
_ZN6ImPoolI10ImGuiTableE8GetByKeyEj W
_ZN6ImPoolI10ImGuiTableEC1Ev W
_ZN6ImPoolI10ImGuiTableEC2Ev W
_ZN6ImPoolI10ImGuiTableED1Ev W
_ZN6ImPoolI10ImGuiTableED2Ev W
_ZN6ImPoolI11ImGuiTabBarE10GetByIndexEi W
_ZN6ImPoolI11ImGuiTabBarE13GetOrAddByKeyEj W
_ZN6ImPoolI11ImGuiTabBarE13TryGetMapDataEi W
_ZN6ImPoolI11ImGuiTabBarE3AddEv W
_ZN6ImPoolI11ImGuiTabBarE5ClearEv W
_ZN6ImPoolI11ImGuiTabBarEC1Ev W
_ZN6ImPoolI11ImGuiTabBarEC2Ev W
_ZN6ImPoolI11ImGuiTabBarED1Ev W
_ZN6ImPoolI11ImGuiTabBarED2Ev W
_ZN6ImRect10TranslateXEf W
_ZN6ImRect10TranslateYEf W
_ZN6ImRect12ClipWithFullERKS_ W
_ZN6ImRect3AddERK6ImVec2 W
_ZN6ImRect3AddERKS_ W
_ZN6ImRect6ExpandEf W
_ZN6ImRect6ExpandERK6ImVec2 W
_ZN6ImRect8ClipWithERKS_ W
_ZN6ImRect9TranslateERK6ImVec2 W
_ZN6ImRectC1Effff W
_ZN6ImRectC1ERK6ImVec2S2_ W
_ZN6ImRectC1ERK6ImVec4 W
_ZN6ImRectC1Ev W
_ZN6ImRectC2Effff W
_ZN6ImRectC2ERK6ImVec2S2_ W
_ZN6ImRectC2ERK6ImVec4 W
_ZN6ImRectC2Ev W
_ZN6ImSpanI16ImGuiTableColumnE3setEPS0_S2_ W
_ZN6ImSpanI16ImGuiTableColumnEC1Ev W
_ZN6ImSpanI16ImGuiTableColumnEC2Ev W
_ZN6ImSpanI16ImGuiTableColumnEixEi W
_ZN6ImSpanI18ImGuiTableCellDataE3setEPS0_S2_ W
_ZN6ImSpanI18ImGuiTableCellDataEC1Ev W
_ZN6ImSpanI18ImGuiTableCellDataEC2Ev W
_ZN6ImSpanI18ImGuiTableCellDataEixEi W
_ZN6ImSpanIaE3setEPaS1_ W
_ZN6ImSpanIaEC1Ev W
_ZN6ImSpanIaEC2Ev W
_ZN6ImSpanIaEixEi W
_ZN6ImVec1C1Ev W
_ZN6ImVec1C2Ev W
_ZN6ImVec2C1Eff W
_ZN6ImVec2C1Ev W
_ZN6ImVec2C2Eff W
_ZN6ImVec2C2Ev W
_ZN6ImVec2ixEm W
_ZN6ImVec4C1Effff W
_ZN6ImVec4C1Ev W
_ZN6ImVec4C2Effff W
_ZN6ImVec4C2Ev W
_ZN7ImColor3HSVEffff W
_ZN7ImColorC1Effff W
_ZN7ImColorC1ERK6ImVec4 W
_ZN7ImColorC2Effff W
_ZN7ImColorC2ERK6ImVec4 W
_ZN7ImGuiIO11AddKeyEventEib T
_ZN7ImGuiIO13AddFocusEventEb T
_ZN7ImGuiIO14ClearInputKeysEv T
_ZN7ImGuiIO16AddMousePosEventEff T
_ZN7ImGuiIO17AddInputCharacterEj T
_ZN7ImGuiIO17AddKeyAnalogEventEibf T
_ZN7ImGuiIO18AddMouseWheelEventEff T
_ZN7ImGuiIO19AddMouseButtonEventEib T
_ZN7ImGuiIO20ClearInputCharactersEv T
_ZN7ImGuiIO21SetKeyEventNativeDataEiiii T
_ZN7ImGuiIO22AddInputCharactersUTF8EPKc T
_ZN7ImGuiIO22AddInputCharacterUTF16Et T
_ZN7ImGuiIOC1Ev T
_ZN7ImGuiIOC2Ev T
_ZN7ImGuiIOD1Ev W
_ZN7ImGuiIOD2Ev W
_ZN8ImVec2ihC1ERK6ImVec2 W
_ZN8ImVec2ihC1Ess W
_ZN8ImVec2ihC1Ev W
_ZN8ImVec2ihC2ERK6ImVec2 W
_ZN8ImVec2ihC2Ess W
_ZN8ImVec2ihC2Ev W
_ZN8ImVectorI10ImDrawVertE4swapERS1_ W
_ZN8ImVectorI10ImDrawVertE5clearEv W
_ZN8ImVectorI10ImDrawVertE6resizeEi W
_ZN8ImVectorI10ImDrawVertE6shrinkEi W
_ZN8ImVectorI10ImDrawVertE7reserveEi W
_ZN8ImVectorI10ImDrawVertEaSERKS1_ W
_ZN8ImVectorI10ImDrawVertEC1Ev W
_ZN8ImVectorI10ImDrawVertEC2Ev W
_ZN8ImVectorI10ImDrawVertED1Ev W
_ZN8ImVectorI10ImDrawVertED2Ev W
_ZN8ImVectorI10ImDrawVertEixEi W
_ZN8ImVectorI10ImGuiTableE5clearEv W
_ZN8ImVectorI10ImGuiTableE6resizeEi W
_ZN8ImVectorI10ImGuiTableE7reserveEi W
_ZN8ImVectorI10ImGuiTableEC1Ev W
_ZN8ImVectorI10ImGuiTableEC2Ev W
_ZN8ImVectorI10ImGuiTableED1Ev W
_ZN8ImVectorI10ImGuiTableED2Ev W
_ZN8ImVectorI10ImGuiTableEixEi W
_ZN8ImVectorI10MyDocumentE7reserveEi W
_ZN8ImVectorI10MyDocumentE9push_backERKS0_ W
_ZN8ImVectorI10MyDocumentEC1Ev W
_ZN8ImVectorI10MyDocumentEC2Ev W
_ZN8ImVectorI10MyDocumentED1Ev W
_ZN8ImVectorI10MyDocumentED2Ev W
_ZN8ImVectorI10MyDocumentEixEi W
_ZN8ImVectorI10stbrp_rectE5clearEv W
_ZN8ImVectorI10stbrp_rectE6resizeEi W
_ZN8ImVectorI10stbrp_rectE7reserveEi W
_ZN8ImVectorI10stbrp_rectEC1Ev W
_ZN8ImVectorI10stbrp_rectEC2Ev W
_ZN8ImVectorI10stbrp_rectED1Ev W
_ZN8ImVectorI10stbrp_rectED2Ev W
_ZN8ImVectorI10stbrp_rectEixEi W
_ZN8ImVectorI11ImFontGlyphE4backEv W
_ZN8ImVectorI11ImFontGlyphE5clearEv W
_ZN8ImVectorI11ImFontGlyphE6resizeEi W
_ZN8ImVectorI11ImFontGlyphE7reserveEi W
_ZN8ImVectorI11ImFontGlyphEC1Ev W
_ZN8ImVectorI11ImFontGlyphEC2Ev W
_ZN8ImVectorI11ImFontGlyphED1Ev W
_ZN8ImVectorI11ImFontGlyphED2Ev W
_ZN8ImVectorI11ImFontGlyphEixEi W
_ZN8ImVectorI11ImGuiTabBarE5clearEv W
_ZN8ImVectorI11ImGuiTabBarE6resizeEi W
_ZN8ImVectorI11ImGuiTabBarE7reserveEi W
_ZN8ImVectorI11ImGuiTabBarEC1Ev W
_ZN8ImVectorI11ImGuiTabBarEC2Ev W
_ZN8ImVectorI11ImGuiTabBarED1Ev W
_ZN8ImVectorI11ImGuiTabBarED2Ev W
_ZN8ImVectorI11ImGuiTabBarEixEi W
_ZN8ImVectorI12ImFontConfigE4backEv W
_ZN8ImVectorI12ImFontConfigE5clearEv W
_ZN8ImVectorI12ImFontConfigE7reserveEi W
_ZN8ImVectorI12ImFontConfigE9push_backERKS0_ W
_ZN8ImVectorI12ImFontConfigEC1Ev W
_ZN8ImVectorI12ImFontConfigEC2Ev W
_ZN8ImVectorI12ImFontConfigED1Ev W
_ZN8ImVectorI12ImFontConfigED2Ev W
_ZN8ImVectorI12ImFontConfigEixEi W
_ZN8ImVectorI12ImGuiTabItemE4backEv W
_ZN8ImVectorI12ImGuiTabItemE5eraseEPKS0_ W
_ZN8ImVectorI12ImGuiTabItemE6resizeEi W
_ZN8ImVectorI12ImGuiTabItemE7reserveEi W
_ZN8ImVectorI12ImGuiTabItemE9push_backERKS0_ W
_ZN8ImVectorI12ImGuiTabItemEC1Ev W
_ZN8ImVectorI12ImGuiTabItemEC2Ev W
_ZN8ImVectorI12ImGuiTabItemED1Ev W
_ZN8ImVectorI12ImGuiTabItemED2Ev W
_ZN8ImVectorI12ImGuiTabItemEixEi W
_ZN8ImVectorI13ImDrawChannelE5clearEv W
_ZN8ImVectorI13ImDrawChannelE6resizeEi W
_ZN8ImVectorI13ImDrawChannelE7reserveEi W
_ZN8ImVectorI13ImDrawChannelEC1Ev W
_ZN8ImVectorI13ImDrawChannelEC2Ev W
_ZN8ImVectorI13ImDrawChannelED1Ev W
_ZN8ImVectorI13ImDrawChannelED2Ev W
_ZN8ImVectorI13ImDrawChannelEixEi W
_ZN8ImVectorI13ImGuiColorModE4backEv W
_ZN8ImVectorI13ImGuiColorModE5clearEv W
_ZN8ImVectorI13ImGuiColorModE7reserveEi W
_ZN8ImVectorI13ImGuiColorModE8pop_backEv W
_ZN8ImVectorI13ImGuiColorModE9push_backERKS0_ W
_ZN8ImVectorI13ImGuiColorModEC1Ev W
_ZN8ImVectorI13ImGuiColorModEC2Ev W
_ZN8ImVectorI13ImGuiColorModED1Ev W
_ZN8ImVectorI13ImGuiColorModED2Ev W
_ZN8ImVectorI13ImGuiStyleModE4backEv W
_ZN8ImVectorI13ImGuiStyleModE5clearEv W
_ZN8ImVectorI13ImGuiStyleModE7reserveEi W
_ZN8ImVectorI13ImGuiStyleModE8pop_backEv W
_ZN8ImVectorI13ImGuiStyleModE9push_backERKS0_ W
_ZN8ImVectorI13ImGuiStyleModEC1Ev W
_ZN8ImVectorI13ImGuiStyleModEC2Ev W
_ZN8ImVectorI13ImGuiStyleModED1Ev W
_ZN8ImVectorI13ImGuiStyleModED2Ev W
_ZN8ImVectorI14ImGuiGroupDataE4backEv W
_ZN8ImVectorI14ImGuiGroupDataE5clearEv W
_ZN8ImVectorI14ImGuiGroupDataE6resizeEi W
_ZN8ImVectorI14ImGuiGroupDataE7reserveEi W
_ZN8ImVectorI14ImGuiGroupDataE8pop_backEv W
_ZN8ImVectorI14ImGuiGroupDataEC1Ev W
_ZN8ImVectorI14ImGuiGroupDataEC2Ev W
_ZN8ImVectorI14ImGuiGroupDataED1Ev W
_ZN8ImVectorI14ImGuiGroupDataED2Ev W
_ZN8ImVectorI14ImGuiPopupDataE4backEv W
_ZN8ImVectorI14ImGuiPopupDataE5clearEv W
_ZN8ImVectorI14ImGuiPopupDataE6resizeEi W
_ZN8ImVectorI14ImGuiPopupDataE7reserveEi W
_ZN8ImVectorI14ImGuiPopupDataE8pop_backEv W
_ZN8ImVectorI14ImGuiPopupDataE9push_backERKS0_ W
_ZN8ImVectorI14ImGuiPopupDataEC1Ev W
_ZN8ImVectorI14ImGuiPopupDataEC2Ev W
_ZN8ImVectorI14ImGuiPopupDataED1Ev W
_ZN8ImVectorI14ImGuiPopupDataED2Ev W
_ZN8ImVectorI14ImGuiPopupDataEixEi W
_ZN8ImVectorI15ImGuiInputEventE5eraseEPKS0_S3_ W
_ZN8ImVectorI15ImGuiInputEventE6resizeEi W
_ZN8ImVectorI15ImGuiInputEventE7reserveEi W
_ZN8ImVectorI15ImGuiInputEventE9push_backERKS0_ W
_ZN8ImVectorI15ImGuiInputEventEC1Ev W
_ZN8ImVectorI15ImGuiInputEventEC2Ev W
_ZN8ImVectorI15ImGuiInputEventED1Ev W
_ZN8ImVectorI15ImGuiInputEventED2Ev W
_ZN8ImVectorI15ImGuiInputEventEixEi W
_ZN8ImVectorI15ImGuiOldColumnsE14clear_destructEv W
_ZN8ImVectorI15ImGuiOldColumnsE4backEv W
_ZN8ImVectorI15ImGuiOldColumnsE5clearEv W
_ZN8ImVectorI15ImGuiOldColumnsE7reserveEi W
_ZN8ImVectorI15ImGuiOldColumnsE9push_backERKS0_ W
_ZN8ImVectorI15ImGuiOldColumnsEC1Ev W
_ZN8ImVectorI15ImGuiOldColumnsEC2Ev W
_ZN8ImVectorI15ImGuiOldColumnsED1Ev W
_ZN8ImVectorI15ImGuiOldColumnsED2Ev W
_ZN8ImVectorI15ImGuiOldColumnsEixEi W
_ZN8ImVectorI15ImGuiPtrOrIndexE4backEv W
_ZN8ImVectorI15ImGuiPtrOrIndexE5clearEv W
_ZN8ImVectorI15ImGuiPtrOrIndexE7reserveEi W
_ZN8ImVectorI15ImGuiPtrOrIndexE8pop_backEv W
_ZN8ImVectorI15ImGuiPtrOrIndexE9push_backERKS0_ W
_ZN8ImVectorI15ImGuiPtrOrIndexEC1Ev W
_ZN8ImVectorI15ImGuiPtrOrIndexEC2Ev W
_ZN8ImVectorI15ImGuiPtrOrIndexED1Ev W
_ZN8ImVectorI15ImGuiPtrOrIndexED2Ev W
_ZN8ImVectorI16ImGuiContextHookE4backEv W
_ZN8ImVectorI16ImGuiContextHookE5eraseEPKS0_ W
_ZN8ImVectorI16ImGuiContextHookE7reserveEi W
_ZN8ImVectorI16ImGuiContextHookE9push_backERKS0_ W
_ZN8ImVectorI16ImGuiContextHookEC1Ev W
_ZN8ImVectorI16ImGuiContextHookEC2Ev W
_ZN8ImVectorI16ImGuiContextHookED1Ev W
_ZN8ImVectorI16ImGuiContextHookED2Ev W
_ZN8ImVectorI16ImGuiContextHookEixEi W
_ZN8ImVectorI16stbtt_packedcharE6resizeEi W
_ZN8ImVectorI16stbtt_packedcharE7reserveEi W
_ZN8ImVectorI16stbtt_packedcharEC1Ev W
_ZN8ImVectorI16stbtt_packedcharEC2Ev W
_ZN8ImVectorI16stbtt_packedcharED1Ev W
_ZN8ImVectorI16stbtt_packedcharED2Ev W
_ZN8ImVectorI16stbtt_packedcharEixEi W
_ZN8ImVectorI16VkPresentModeKHRE6resizeEi W
_ZN8ImVectorI16VkPresentModeKHRE7reserveEi W
_ZN8ImVectorI16VkPresentModeKHREC1Ev W
_ZN8ImVectorI16VkPresentModeKHREC2Ev W
_ZN8ImVectorI16VkPresentModeKHRED1Ev W
_ZN8ImVectorI16VkPresentModeKHRED2Ev W
_ZN8ImVectorI16VkPresentModeKHREixEi W
_ZN8ImVectorI18ImFontBuildDstDataE5clearEv W
_ZN8ImVectorI18ImFontBuildDstDataE6resizeEi W
_ZN8ImVectorI18ImFontBuildDstDataE7reserveEi W
_ZN8ImVectorI18ImFontBuildDstDataEC1Ev W
_ZN8ImVectorI18ImFontBuildDstDataEC2Ev W
_ZN8ImVectorI18ImFontBuildDstDataED1Ev W
_ZN8ImVectorI18ImFontBuildDstDataED2Ev W
_ZN8ImVectorI18ImFontBuildDstDataEixEi W
_ZN8ImVectorI18ImFontBuildSrcDataE14clear_destructEv W
_ZN8ImVectorI18ImFontBuildSrcDataE5clearEv W
_ZN8ImVectorI18ImFontBuildSrcDataE6resizeEi W
_ZN8ImVectorI18ImFontBuildSrcDataE7reserveEi W
_ZN8ImVectorI18ImFontBuildSrcDataEC1Ev W
_ZN8ImVectorI18ImFontBuildSrcDataEC2Ev W
_ZN8ImVectorI18ImFontBuildSrcDataED1Ev W
_ZN8ImVectorI18ImFontBuildSrcDataED2Ev W
_ZN8ImVectorI18ImFontBuildSrcDataEixEi W
_ZN8ImVectorI18ImGuiOldColumnDataE6resizeEi W
_ZN8ImVectorI18ImGuiOldColumnDataE7reserveEi W
_ZN8ImVectorI18ImGuiOldColumnDataE9push_backERKS0_ W
_ZN8ImVectorI18ImGuiOldColumnDataEC1Ev W
_ZN8ImVectorI18ImGuiOldColumnDataEC2Ev W
_ZN8ImVectorI18ImGuiOldColumnDataED1Ev W
_ZN8ImVectorI18ImGuiOldColumnDataED2Ev W
_ZN8ImVectorI18ImGuiOldColumnDataEixEi W
_ZN8ImVectorI18ImGuiTableTempDataE14clear_destructEv W
_ZN8ImVectorI18ImGuiTableTempDataE5clearEv W
_ZN8ImVectorI18ImGuiTableTempDataE6resizeEiRKS0_ W
_ZN8ImVectorI18ImGuiTableTempDataE7reserveEi W
_ZN8ImVectorI18ImGuiTableTempDataEC1Ev W
_ZN8ImVectorI18ImGuiTableTempDataEC2Ev W
_ZN8ImVectorI18ImGuiTableTempDataED1Ev W
_ZN8ImVectorI18ImGuiTableTempDataED2Ev W
_ZN8ImVectorI18ImGuiTableTempDataEixEi W
_ZN8ImVectorI18VkSurfaceFormatKHRE6resizeEi W
_ZN8ImVectorI18VkSurfaceFormatKHRE7reserveEi W
_ZN8ImVectorI18VkSurfaceFormatKHREC1Ev W
_ZN8ImVectorI18VkSurfaceFormatKHREC2Ev W
_ZN8ImVectorI18VkSurfaceFormatKHRED1Ev W
_ZN8ImVectorI18VkSurfaceFormatKHRED2Ev W
_ZN8ImVectorI18VkSurfaceFormatKHREixEi W
_ZN8ImVectorI19ImGuiStackLevelInfoE6resizeEi W
_ZN8ImVectorI19ImGuiStackLevelInfoE6resizeEiRKS0_ W
_ZN8ImVectorI19ImGuiStackLevelInfoE7reserveEi W
_ZN8ImVectorI19ImGuiStackLevelInfoEC1Ev W
_ZN8ImVectorI19ImGuiStackLevelInfoEC2Ev W
_ZN8ImVectorI19ImGuiStackLevelInfoED1Ev W
_ZN8ImVectorI19ImGuiStackLevelInfoED2Ev W
_ZN8ImVectorI19ImGuiStackLevelInfoEixEi W
_ZN8ImVectorI20ImGuiListClipperDataE14clear_destructEv W
_ZN8ImVectorI20ImGuiListClipperDataE5clearEv W
_ZN8ImVectorI20ImGuiListClipperDataE6resizeEiRKS0_ W
_ZN8ImVectorI20ImGuiListClipperDataE7reserveEi W
_ZN8ImVectorI20ImGuiListClipperDataEC1Ev W
_ZN8ImVectorI20ImGuiListClipperDataEC2Ev W
_ZN8ImVectorI20ImGuiListClipperDataED1Ev W
_ZN8ImVectorI20ImGuiListClipperDataED2Ev W
_ZN8ImVectorI20ImGuiListClipperDataEixEi W
_ZN8ImVectorI20ImGuiSettingsHandlerE5clearEv W
_ZN8ImVectorI20ImGuiSettingsHandlerE7reserveEi W
_ZN8ImVectorI20ImGuiSettingsHandlerE9push_backERKS0_ W
_ZN8ImVectorI20ImGuiSettingsHandlerEC1Ev W
_ZN8ImVectorI20ImGuiSettingsHandlerEC2Ev W
_ZN8ImVectorI20ImGuiSettingsHandlerED1Ev W
_ZN8ImVectorI20ImGuiSettingsHandlerED2Ev W
_ZN8ImVectorI20ImGuiSettingsHandlerEixEi W
_ZN8ImVectorI20ImGuiShrinkWidthItemE5clearEv W
_ZN8ImVectorI20ImGuiShrinkWidthItemE6resizeEi W
_ZN8ImVectorI20ImGuiShrinkWidthItemE7reserveEi W
_ZN8ImVectorI20ImGuiShrinkWidthItemEC1Ev W
_ZN8ImVectorI20ImGuiShrinkWidthItemEC2Ev W
_ZN8ImVectorI20ImGuiShrinkWidthItemED1Ev W
_ZN8ImVectorI20ImGuiShrinkWidthItemED2Ev W
_ZN8ImVectorI20ImGuiShrinkWidthItemEixEi W
_ZN8ImVectorI20ImGuiWindowStackDataE4backEv W
_ZN8ImVectorI20ImGuiWindowStackDataE5clearEv W
_ZN8ImVectorI20ImGuiWindowStackDataE6resizeEi W
_ZN8ImVectorI20ImGuiWindowStackDataE7reserveEi W
_ZN8ImVectorI20ImGuiWindowStackDataE8pop_backEv W
_ZN8ImVectorI20ImGuiWindowStackDataE9push_backERKS0_ W
_ZN8ImVectorI20ImGuiWindowStackDataEC1Ev W
_ZN8ImVectorI20ImGuiWindowStackDataEC2Ev W
_ZN8ImVectorI20ImGuiWindowStackDataED1Ev W
_ZN8ImVectorI20ImGuiWindowStackDataED2Ev W
_ZN8ImVectorI20ImGuiWindowStackDataEixEi W
_ZN8ImVectorI21ImFontAtlasCustomRectE5clearEv W
_ZN8ImVectorI21ImFontAtlasCustomRectE7reserveEi W
_ZN8ImVectorI21ImFontAtlasCustomRectE9push_backERKS0_ W
_ZN8ImVectorI21ImFontAtlasCustomRectEC1Ev W
_ZN8ImVectorI21ImFontAtlasCustomRectEC2Ev W
_ZN8ImVectorI21ImFontAtlasCustomRectED1Ev W
_ZN8ImVectorI21ImFontAtlasCustomRectED2Ev W
_ZN8ImVectorI21ImFontAtlasCustomRectEixEi W
_ZN8ImVectorI21ImGuiListClipperRangeE10push_frontERKS0_ W
_ZN8ImVectorI21ImGuiListClipperRangeE5eraseEPKS0_ W
_ZN8ImVectorI21ImGuiListClipperRangeE6insertEPKS0_RS2_ W
_ZN8ImVectorI21ImGuiListClipperRangeE6resizeEi W
_ZN8ImVectorI21ImGuiListClipperRangeE7reserveEi W
_ZN8ImVectorI21ImGuiListClipperRangeE9push_backERKS0_ W
_ZN8ImVectorI21ImGuiListClipperRangeEC1Ev W
_ZN8ImVectorI21ImGuiListClipperRangeEC2Ev W
_ZN8ImVectorI21ImGuiListClipperRangeED1Ev W
_ZN8ImVectorI21ImGuiListClipperRangeED2Ev W
_ZN8ImVectorI21ImGuiListClipperRangeEixEi W
_ZN8ImVectorI25ImGuiTableColumnSortSpecsE5clearEv W
_ZN8ImVectorI25ImGuiTableColumnSortSpecsE6resizeEi W
_ZN8ImVectorI25ImGuiTableColumnSortSpecsE7reserveEi W
_ZN8ImVectorI25ImGuiTableColumnSortSpecsEC1Ev W
_ZN8ImVectorI25ImGuiTableColumnSortSpecsEC2Ev W
_ZN8ImVectorI25ImGuiTableColumnSortSpecsED1Ev W
_ZN8ImVectorI25ImGuiTableColumnSortSpecsED2Ev W
_ZN8ImVectorI6ImVec2E4backEv W
_ZN8ImVectorI6ImVec2E5clearEv W
_ZN8ImVectorI6ImVec2E6resizeEi W
_ZN8ImVectorI6ImVec2E7reserveEi W
_ZN8ImVectorI6ImVec2E9push_backERKS0_ W
_ZN8ImVectorI6ImVec2EC1Ev W
_ZN8ImVectorI6ImVec2EC2Ev W
_ZN8ImVectorI6ImVec2ED1Ev W
_ZN8ImVectorI6ImVec2ED2Ev W
_ZN8ImVectorI6ImVec2EixEi W
_ZN8ImVectorI6ImVec4E4backEv W
_ZN8ImVectorI6ImVec4E5clearEv W
_ZN8ImVectorI6ImVec4E6resizeEi W
_ZN8ImVectorI6ImVec4E7reserveEi W
_ZN8ImVectorI6ImVec4E8pop_backEv W
_ZN8ImVectorI6ImVec4E9push_backERKS0_ W
_ZN8ImVectorI6ImVec4EC1Ev W
_ZN8ImVectorI6ImVec4EC2Ev W
_ZN8ImVectorI6ImVec4ED1Ev W
_ZN8ImVectorI6ImVec4ED2Ev W
_ZN8ImVectorI9ImDrawCmdE10push_frontERKS0_ W
_ZN8ImVectorI9ImDrawCmdE4backEv W
_ZN8ImVectorI9ImDrawCmdE5clearEv W
_ZN8ImVectorI9ImDrawCmdE5eraseEPKS0_ W
_ZN8ImVectorI9ImDrawCmdE6insertEPKS0_RS2_ W
_ZN8ImVectorI9ImDrawCmdE6resizeEi W
_ZN8ImVectorI9ImDrawCmdE7reserveEi W
_ZN8ImVectorI9ImDrawCmdE8pop_backEv W
_ZN8ImVectorI9ImDrawCmdE9push_backERKS0_ W
_ZN8ImVectorI9ImDrawCmdEaSERKS1_ W
_ZN8ImVectorI9ImDrawCmdEC1Ev W
_ZN8ImVectorI9ImDrawCmdEC2Ev W
_ZN8ImVectorI9ImDrawCmdED1Ev W
_ZN8ImVectorI9ImDrawCmdED2Ev W
_ZN8ImVectorI9ImDrawCmdEixEi W
_ZN8ImVectorIcE4swapERS0_ W
_ZN8ImVectorIcE5beginEv W
_ZN8ImVectorIcE5clearEv W
_ZN8ImVectorIcE6resizeEi W
_ZN8ImVectorIcE7reserveEi W
_ZN8ImVectorIcE9push_backERKc W
_ZN8ImVectorIcEC1Ev W
_ZN8ImVectorIcEC2Ev W
_ZN8ImVectorIcED1Ev W
_ZN8ImVectorIcED2Ev W
_ZN8ImVectorIcEixEi W
_ZN8ImVectorIfE4backEv W
_ZN8ImVectorIfE5clearEv W
_ZN8ImVectorIfE6resizeEi W
_ZN8ImVectorIfE6resizeEiRKf W
_ZN8ImVectorIfE7reserveEi W
_ZN8ImVectorIfE8pop_backEv W
_ZN8ImVectorIfE9push_backERKf W
_ZN8ImVectorIfEC1Ev W
_ZN8ImVectorIfEC2Ev W
_ZN8ImVectorIfED1Ev W
_ZN8ImVectorIfED2Ev W
_ZN8ImVectorIfEixEi W
_ZN8ImVectorIhE5clearEv W
_ZN8ImVectorIhE6resizeEi W
_ZN8ImVectorIhE7reserveEi W
_ZN8ImVectorIhEC1Ev W
_ZN8ImVectorIhEC2Ev W
_ZN8ImVectorIhED1Ev W
_ZN8ImVectorIhED2Ev W
_ZN8ImVectorIiE14erase_unsortedEPKi W
_ZN8ImVectorIiE19find_erase_unsortedERKi W
_ZN8ImVectorIiE4backEv W
_ZN8ImVectorIiE4findERKi W
_ZN8ImVectorIiE5clearEv W
_ZN8ImVectorIiE5eraseEPKi W
_ZN8ImVectorIiE6resizeEi W
_ZN8ImVectorIiE7reserveEi W
_ZN8ImVectorIiE8pop_backEv W
_ZN8ImVectorIiE9push_backERKi W
_ZN8ImVectorIiEC1Ev W
_ZN8ImVectorIiEC2Ev W
_ZN8ImVectorIiED1Ev W
_ZN8ImVectorIiED2Ev W
_ZN8ImVectorIiEixEi W
_ZN8ImVectorIjE4backEv W
_ZN8ImVectorIjE5clearEv W
_ZN8ImVectorIjE6resizeEi W
_ZN8ImVectorIjE7reserveEi W
_ZN8ImVectorIjE8pop_backEv W
_ZN8ImVectorIjE9push_backERKj W
_ZN8ImVectorIjEC1Ev W
_ZN8ImVectorIjEC2Ev W
_ZN8ImVectorIjED1Ev W
_ZN8ImVectorIjED2Ev W
_ZN8ImVectorIjEixEi W
_ZN8ImVectorIN12ImGuiStorage16ImGuiStoragePairEE3endEv W
_ZN8ImVectorIN12ImGuiStorage16ImGuiStoragePairEE5clearEv W
_ZN8ImVectorIN12ImGuiStorage16ImGuiStoragePairEE6insertEPKS1_RS3_ W
_ZN8ImVectorIN12ImGuiStorage16ImGuiStoragePairEE7reserveEi W
_ZN8ImVectorIN12ImGuiStorage16ImGuiStoragePairEEC1Ev W
_ZN8ImVectorIN12ImGuiStorage16ImGuiStoragePairEEC2Ev W
_ZN8ImVectorIN12ImGuiStorage16ImGuiStoragePairEED1Ev W
_ZN8ImVectorIN12ImGuiStorage16ImGuiStoragePairEED2Ev W
_ZN8ImVectorIN12ImGuiStorage16ImGuiStoragePairEEixEi W
_ZN8ImVectorIN15ImGuiTextFilter14ImGuiTextRangeEE6resizeEi W
_ZN8ImVectorIN15ImGuiTextFilter14ImGuiTextRangeEE7reserveEi W
_ZN8ImVectorIN15ImGuiTextFilter14ImGuiTextRangeEE9push_backERKS1_ W
_ZN8ImVectorIN15ImGuiTextFilter14ImGuiTextRangeEEC1Ev W
_ZN8ImVectorIN15ImGuiTextFilter14ImGuiTextRangeEEC2Ev W
_ZN8ImVectorIN15ImGuiTextFilter14ImGuiTextRangeEED1Ev W
_ZN8ImVectorIN15ImGuiTextFilter14ImGuiTextRangeEED2Ev W
_ZN8ImVectorIN15ImGuiTextFilter14ImGuiTextRangeEEixEi W
_ZN8ImVectorIP10ImDrawListE6resizeEi W
_ZN8ImVectorIP10ImDrawListE7reserveEi W
_ZN8ImVectorIP10ImDrawListE9push_backERKS1_ W
_ZN8ImVectorIP10ImDrawListEC1Ev W
_ZN8ImVectorIP10ImDrawListEC2Ev W
_ZN8ImVectorIP10ImDrawListED1Ev W
_ZN8ImVectorIP10ImDrawListED2Ev W
_ZN8ImVectorIP10ImDrawListEixEi W
_ZN8ImVectorIP10MyDocumentE5clearEv W
_ZN8ImVectorIP10MyDocumentE7reserveEi W
_ZN8ImVectorIP10MyDocumentE9push_backERKS1_ W
_ZN8ImVectorIP10MyDocumentEC1Ev W
_ZN8ImVectorIP10MyDocumentEC2Ev W
_ZN8ImVectorIP10MyDocumentED1Ev W
_ZN8ImVectorIP10MyDocumentED2Ev W
_ZN8ImVectorIP10MyDocumentEixEi W
_ZN8ImVectorIP11ImGuiWindowE10push_frontERKS1_ W
_ZN8ImVectorIP11ImGuiWindowE12clear_deleteEv W
_ZN8ImVectorIP11ImGuiWindowE4backEv W
_ZN8ImVectorIP11ImGuiWindowE4findERKS1_ W
_ZN8ImVectorIP11ImGuiWindowE4swapERS2_ W
_ZN8ImVectorIP11ImGuiWindowE5clearEv W
_ZN8ImVectorIP11ImGuiWindowE5eraseEPKS1_ W
_ZN8ImVectorIP11ImGuiWindowE6insertEPKS1_RS3_ W
_ZN8ImVectorIP11ImGuiWindowE6resizeEi W
_ZN8ImVectorIP11ImGuiWindowE7reserveEi W
_ZN8ImVectorIP11ImGuiWindowE9push_backERKS1_ W
_ZN8ImVectorIP11ImGuiWindowEC1Ev W
_ZN8ImVectorIP11ImGuiWindowEC2Ev W
_ZN8ImVectorIP11ImGuiWindowED1Ev W
_ZN8ImVectorIP11ImGuiWindowED2Ev W
_ZN8ImVectorIP11ImGuiWindowEixEi W
_ZN8ImVectorIP14ImGuiViewportPE12clear_deleteEv W
_ZN8ImVectorIP14ImGuiViewportPE5clearEv W
_ZN8ImVectorIP14ImGuiViewportPE7reserveEi W
_ZN8ImVectorIP14ImGuiViewportPE9push_backERKS1_ W
_ZN8ImVectorIP14ImGuiViewportPEC1Ev W
_ZN8ImVectorIP14ImGuiViewportPEC2Ev W
_ZN8ImVectorIP14ImGuiViewportPED1Ev W
_ZN8ImVectorIP14ImGuiViewportPED2Ev W
_ZN8ImVectorIP14ImGuiViewportPEixEi W
_ZN8ImVectorIP6ImFontE12clear_deleteEv W
_ZN8ImVectorIP6ImFontE4backEv W
_ZN8ImVectorIP6ImFontE5clearEv W
_ZN8ImVectorIP6ImFontE7reserveEi W
_ZN8ImVectorIP6ImFontE8pop_backEv W
_ZN8ImVectorIP6ImFontE9push_backERKS1_ W
_ZN8ImVectorIP6ImFontEC1Ev W
_ZN8ImVectorIP6ImFontEC2Ev W
_ZN8ImVectorIP6ImFontED1Ev W
_ZN8ImVectorIP6ImFontED2Ev W
_ZN8ImVectorIP6ImFontEixEi W
_ZN8ImVectorIPcE5beginEv W
_ZN8ImVectorIPcE5clearEv W
_ZN8ImVectorIPcE5eraseEPKS0_ W
_ZN8ImVectorIPcE7reserveEi W
_ZN8ImVectorIPcE9push_backERKS0_ W
_ZN8ImVectorIPcEC1Ev W
_ZN8ImVectorIPcEC2Ev W
_ZN8ImVectorIPcED1Ev W
_ZN8ImVectorIPcED2Ev W
_ZN8ImVectorIPcEixEi W
_ZN8ImVectorIPKcE7reserveEi W
_ZN8ImVectorIPKcE9push_backERKS1_ W
_ZN8ImVectorIPKcEC1Ev W
_ZN8ImVectorIPKcEC2Ev W
_ZN8ImVectorIPKcED1Ev W
_ZN8ImVectorIPKcED2Ev W
_ZN8ImVectorIPKcEixEi W
_ZN8ImVectorIPvE5clearEv W
_ZN8ImVectorIPvE6resizeEi W
_ZN8ImVectorIPvE7reserveEi W
_ZN8ImVectorIPvE8pop_backEv W
_ZN8ImVectorIPvE9push_backERKS0_ W
_ZN8ImVectorIPvEC1Ev W
_ZN8ImVectorIPvEC2Ev W
_ZN8ImVectorIPvED1Ev W
_ZN8ImVectorIPvED2Ev W
_ZN8ImVectorItE5clearEv W
_ZN8ImVectorItE6resizeEi W
_ZN8ImVectorItE6resizeEiRKt W
_ZN8ImVectorItE6shrinkEi W
_ZN8ImVectorItE7reserveEi W
_ZN8ImVectorItE9push_backERKt W
_ZN8ImVectorItEaSERKS0_ W
_ZN8ImVectorItEC1Ev W
_ZN8ImVectorItEC2Ev W
_ZN8ImVectorItED1Ev W
_ZN8ImVectorItED2Ev W
_ZN8ImVectorItEixEi W
_ZN9__gnu_cxx11char_traitsIcE4copyEPcPKcm W
_ZN9__gnu_cxx11char_traitsIcE4moveEPcPKcm W
_ZN9__gnu_cxx11char_traitsIcE6assignEPcmc W
_ZN9ImDrawCmdC1Ev W
_ZN9ImDrawCmdC2Ev W
_ZNK10ImBitArrayILi132ELi0EE7TestBitEi W
_ZNK10ImBitArrayILi133ELin512EEixEi W
_ZNK10ImBitArrayILi645ELi0EE7TestBitEi W
_ZNK10ImDrawList11CloneOutputEv T
_ZNK10ImDrawList27_CalcCircleAutoSegmentCountEf T
_ZNK11ImBitVector7TestBitEi W
_ZNK11ImFontAtlas16CalcCustomRectUVEPK21ImFontAtlasCustomRectP6ImVec2S4_ T
_ZNK11ImFontAtlas7IsBuiltEv W
_ZNK11ImGuiTabBar10GetTabNameEPK12ImGuiTabItem W
_ZNK11ImGuiTabBar11GetTabOrderEPK12ImGuiTabItem W
_ZNK11ImGuiWindow11MenuBarRectEv W
_ZNK11ImGuiWindow12CalcFontSizeEv W
_ZNK11ImGuiWindow12TitleBarRectEv W
_ZNK11ImGuiWindow13MenuBarHeightEv W
_ZNK11ImGuiWindow14TitleBarHeightEv W
_ZNK11ImGuiWindow4RectEv W
_ZNK12ImGuiPayload10IsDataTypeEPKc W
_ZNK12ImGuiStorage10GetVoidPtrEj T
_ZNK12ImGuiStorage6GetIntEji T
_ZNK12ImGuiStorage7GetBoolEjb T
_ZNK12ImGuiStorage8GetFloatEjf T
_ZNK13ImChunkStreamI18ImGuiTableSettingsE4sizeEv W
_ZNK13ImChunkStreamI19ImGuiWindowSettingsE4sizeEv W
_ZNK13ImChunkStreamI19ImGuiWindowSettingsE5emptyEv W
_ZNK13ImGuiViewport9GetCenterEv W
_ZNK14ImGuiViewportP11GetMainRectEv W
_ZNK14ImGuiViewportP11GetWorkRectEv W
_ZNK14ImGuiViewportP15CalcWorkRectPosERK6ImVec2 W
_ZNK14ImGuiViewportP16CalcWorkRectSizeERK6ImVec2S2_ W
_ZNK14ImGuiViewportP16GetBuildWorkRectEv W
_ZNK15ImGuiTextBuffer3endEv W
_ZNK15ImGuiTextBuffer4sizeEv W
_ZNK15ImGuiTextBuffer5beginEv W
_ZNK15ImGuiTextBuffer5c_strEv W
_ZNK15ImGuiTextBuffer5emptyEv W
_ZNK15ImGuiTextBufferixEi W
_ZNK15ImGuiTextFilter10PassFilterEPKcS1_ T
_ZNK15ImGuiTextFilter14ImGuiTextRange5emptyEv W
_ZNK15ImGuiTextFilter14ImGuiTextRange5splitEcP8ImVectorIS0_E T
_ZNK15ImGuiTextFilter8IsActiveEv W
_ZNK17ImDrawDataBuilder16GetDrawListCountEv W
_ZNK17ImGuiStyleVarInfo9GetVarPtrEP10ImGuiStyle W
_ZNK19ImGuiInputTextState12HasSelectionEv W
_ZNK21ImFontAtlasCustomRect8IsPackedEv W
_ZNK24ImFontGlyphRangesBuilder6GetBitEm W
_ZNK6ImFont10RenderCharEP10ImDrawListf6ImVec2jt T
_ZNK6ImFont10RenderTextEP10ImDrawListf6ImVec2jRK6ImVec4PKcS7_fb T
_ZNK6ImFont12GetDebugNameEv W
_ZNK6ImFont13CalcTextSizeAEfffPKcS1_PS1_ T
_ZNK6ImFont14GetCharAdvanceEt W
_ZNK6ImFont19FindGlyphNoFallbackEt T
_ZNK6ImFont21CalcWordWrapPositionAEfPKcS1_f T
_ZNK6ImFont8IsLoadedEv W
_ZNK6ImFont9FindGlyphEt T
_ZNK6ImPoolI10ImGuiTableE10GetMapSizeEv W
_ZNK6ImPoolI10ImGuiTableE13GetAliveCountEv W
_ZNK6ImPoolI10ImGuiTableE8GetIndexEPKS0_ W
_ZNK6ImPoolI11ImGuiTabBarE10GetMapSizeEv W
_ZNK6ImPoolI11ImGuiTabBarE13GetAliveCountEv W
_ZNK6ImPoolI11ImGuiTabBarE8ContainsEPKS0_ W
_ZNK6ImPoolI11ImGuiTabBarE8GetIndexEPKS0_ W
_ZNK6ImRect10IsInvertedEv W
_ZNK6ImRect5GetBLEv W
_ZNK6ImRect5GetBREv W
_ZNK6ImRect5GetTLEv W
_ZNK6ImRect5GetTREv W
_ZNK6ImRect6ToVec4Ev W
_ZNK6ImRect7GetAreaEv W
_ZNK6ImRect7GetSizeEv W
_ZNK6ImRect8ContainsERK6ImVec2 W
_ZNK6ImRect8ContainsERKS_ W
_ZNK6ImRect8GetWidthEv W
_ZNK6ImRect8OverlapsERKS_ W
_ZNK6ImRect9GetCenterEv W
_ZNK6ImRect9GetHeightEv W
_ZNK6ImSpanI16ImGuiTableColumnE14index_from_ptrEPKS0_ W
_ZNK6ImSpanI16ImGuiTableColumnE4sizeEv W
_ZNK6ImSpanI16ImGuiTableColumnEixEi W
_ZNK6ImVec2ixEm W
_ZNK7ImColorcv6ImVec4Ev W
_ZNK7ImColorcvjEv W
_ZNK8ImVectorI10ImDrawVertE14_grow_capacityEi W
_ZNK8ImVectorI10ImGuiTableE14_grow_capacityEi W
_ZNK8ImVectorI10MyDocumentE14_grow_capacityEi W
_ZNK8ImVectorI10stbrp_rectE13size_in_bytesEv W
_ZNK8ImVectorI10stbrp_rectE14_grow_capacityEi W
_ZNK8ImVectorI11ImFontGlyphE14_grow_capacityEi W
_ZNK8ImVectorI11ImFontGlyphE5emptyEv W
_ZNK8ImVectorI11ImGuiTabBarE14_grow_capacityEi W
_ZNK8ImVectorI12ImFontConfigE14_grow_capacityEi W
_ZNK8ImVectorI12ImGuiTabItemE14_grow_capacityEi W
_ZNK8ImVectorI12ImGuiTabItemE14index_from_ptrEPKS0_ W
_ZNK8ImVectorI13ImDrawChannelE14_grow_capacityEi W
_ZNK8ImVectorI13ImGuiColorModE14_grow_capacityEi W
_ZNK8ImVectorI13ImGuiStyleModE14_grow_capacityEi W
_ZNK8ImVectorI14ImGuiGroupDataE14_grow_capacityEi W
_ZNK8ImVectorI14ImGuiPopupDataE14_grow_capacityEi W
_ZNK8ImVectorI15ImGuiInputEventE14_grow_capacityEi W
_ZNK8ImVectorI15ImGuiOldColumnsE14_grow_capacityEi W
_ZNK8ImVectorI15ImGuiPtrOrIndexE14_grow_capacityEi W
_ZNK8ImVectorI15ImGuiPtrOrIndexE5emptyEv W
_ZNK8ImVectorI16ImGuiContextHookE14_grow_capacityEi W
_ZNK8ImVectorI16stbtt_packedcharE13size_in_bytesEv W
_ZNK8ImVectorI16stbtt_packedcharE14_grow_capacityEi W
_ZNK8ImVectorI16VkPresentModeKHRE14_grow_capacityEi W
_ZNK8ImVectorI18ImFontBuildDstDataE13size_in_bytesEv W
_ZNK8ImVectorI18ImFontBuildDstDataE14_grow_capacityEi W
_ZNK8ImVectorI18ImFontBuildSrcDataE13size_in_bytesEv W
_ZNK8ImVectorI18ImFontBuildSrcDataE14_grow_capacityEi W
_ZNK8ImVectorI18ImGuiOldColumnDataE14_grow_capacityEi W
_ZNK8ImVectorI18ImGuiTableTempDataE14_grow_capacityEi W
_ZNK8ImVectorI18VkSurfaceFormatKHRE14_grow_capacityEi W
_ZNK8ImVectorI19ImGuiStackLevelInfoE14_grow_capacityEi W
_ZNK8ImVectorI20ImGuiListClipperDataE14_grow_capacityEi W
_ZNK8ImVectorI20ImGuiSettingsHandlerE14_grow_capacityEi W
_ZNK8ImVectorI20ImGuiShrinkWidthItemE14_grow_capacityEi W
_ZNK8ImVectorI20ImGuiWindowStackDataE14_grow_capacityEi W
_ZNK8ImVectorI20ImGuiWindowStackDataE5emptyEv W
_ZNK8ImVectorI21ImFontAtlasCustomRectE14_grow_capacityEi W
_ZNK8ImVectorI21ImGuiListClipperRangeE14_grow_capacityEi W
_ZNK8ImVectorI25ImGuiTableColumnSortSpecsE14_grow_capacityEi W
_ZNK8ImVectorI6ImVec2E14_grow_capacityEi W
_ZNK8ImVectorI6ImVec2E4sizeEv W
_ZNK8ImVectorI6ImVec4E14_grow_capacityEi W
_ZNK8ImVectorI9ImDrawCmdE14_grow_capacityEi W
_ZNK8ImVectorI9ImDrawCmdE4backEv W
_ZNK8ImVectorI9ImDrawCmdE5beginEv W
_ZNK8ImVectorI9ImDrawCmdEixEi W
_ZNK8ImVectorIcE14_grow_capacityEi W
_ZNK8ImVectorIcE4backEv W
_ZNK8ImVectorIcE4sizeEv W
_ZNK8ImVectorIcE5emptyEv W
_ZNK8ImVectorIcE5frontEv W
_ZNK8ImVectorIcE8capacityEv W
_ZNK8ImVectorIcEixEi W
_ZNK8ImVectorIfE14_grow_capacityEi W
_ZNK8ImVectorIfE5emptyEv W
_ZNK8ImVectorIfEixEi W
_ZNK8ImVectorIhE14_grow_capacityEi W
_ZNK8ImVectorIiE14_grow_capacityEi W
_ZNK8ImVectorIiE8containsERKi W
_ZNK8ImVectorIjE14_grow_capacityEi W
_ZNK8ImVectorIjE3endEv W
_ZNK8ImVectorIjE5beginEv W
_ZNK8ImVectorIjE5emptyEv W
_ZNK8ImVectorIjE8containsERKj W
_ZNK8ImVectorIjEixEi W
_ZNK8ImVectorIN12ImGuiStorage16ImGuiStoragePairEE13size_in_bytesEv W
_ZNK8ImVectorIN12ImGuiStorage16ImGuiStoragePairEE14_grow_capacityEi W
_ZNK8ImVectorIN12ImGuiStorage16ImGuiStoragePairEE3endEv W
_ZNK8ImVectorIN15ImGuiTextFilter14ImGuiTextRangeEE14_grow_capacityEi W
_ZNK8ImVectorIN15ImGuiTextFilter14ImGuiTextRangeEE5emptyEv W
_ZNK8ImVectorIN15ImGuiTextFilter14ImGuiTextRangeEEixEi W
_ZNK8ImVectorIP10ImDrawListE14_grow_capacityEi W
_ZNK8ImVectorIP10ImDrawListE5emptyEv W
_ZNK8ImVectorIP10MyDocumentE14_grow_capacityEi W
_ZNK8ImVectorIP10MyDocumentE5emptyEv W
_ZNK8ImVectorIP11ImGuiWindowE14_grow_capacityEi W
_ZNK8ImVectorIP11ImGuiWindowE14index_from_ptrEPKS1_ W
_ZNK8ImVectorIP11ImGuiWindowE8containsERKS1_ W
_ZNK8ImVectorIP14ImGuiViewportPE14_grow_capacityEi W
_ZNK8ImVectorIP6ImFontE14_grow_capacityEi W
_ZNK8ImVectorIP6ImFontE5emptyEv W
_ZNK8ImVectorIPcE14_grow_capacityEi W
_ZNK8ImVectorIPKcE14_grow_capacityEi W
_ZNK8ImVectorIPvE14_grow_capacityEi W
_ZNK8ImVectorItE14_grow_capacityEi W
_ZNK8ImVectorItE5emptyEv W
_ZNK8ImVectorItE8containsERKt W
_ZNK8ImVectorItEixEi W
_ZNK9ImDrawCmd8GetTexIDEv W
_ZNKSt15__new_allocatorIcE11_M_max_sizeEv W
_ZNKSt7__cxx1112basic_stringIcSt11char_traitsIcESaIcEE11_M_is_localEv W
_ZNKSt7__cxx1112basic_stringIcSt11char_traitsIcESaIcEE13_M_local_dataEv W
_ZNKSt7__cxx1112basic_stringIcSt11char_traitsIcESaIcEE15_M_check_lengthEmmPKc W
_ZNKSt7__cxx1112basic_stringIcSt11char_traitsIcESaIcEE16_M_get_allocatorEv W
_ZNKSt7__cxx1112basic_stringIcSt11char_traitsIcESaIcEE4sizeEv W
_ZNKSt7__cxx1112basic_stringIcSt11char_traitsIcESaIcEE5c_strEv W
_ZNKSt7__cxx1112basic_stringIcSt11char_traitsIcESaIcEE6lengthEv W
_ZNKSt7__cxx1112basic_stringIcSt11char_traitsIcESaIcEE7_M_dataEv W
_ZNKSt7__cxx1112basic_stringIcSt11char_traitsIcESaIcEE8capacityEv W
_ZNKSt7__cxx1112basic_stringIcSt11char_traitsIcESaIcEE8max_sizeEv W
_ZNSt11char_traitsIcE4copyEPcPKcm W
_ZNSt11char_traitsIcE4moveEPcPKcm W
_ZNSt11char_traitsIcE6assignEPcmc W
_ZNSt11char_traitsIcE6assignERcRKc W
_ZNSt15__new_allocatorIcE10deallocateEPcm W
_ZNSt15__new_allocatorIcE8allocateEmPKv W
_ZNSt16allocator_traitsISaIcEE10deallocateERS0_Pcm W
_ZNSt16allocator_traitsISaIcEE8allocateERS0_m W
_ZNSt16allocator_traitsISaIcEE8max_sizeERKS0_ W
_ZNSt19__ptr_traits_ptr_toIPKcS0_Lb0EE10pointer_toERS0_ W
_ZNSt7__cxx1112basic_stringIcSt11char_traitsIcESaIcEE10_M_destroyEm W
_ZNSt7__cxx1112basic_stringIcSt11char_traitsIcESaIcEE10_M_disposeEv W
_ZNSt7__cxx1112basic_stringIcSt11char_traitsIcESaIcEE11_M_capacityEm W
_ZNSt7__cxx1112basic_stringIcSt11char_traitsIcESaIcEE13_M_set_lengthEm W
_ZNSt7__cxx1112basic_stringIcSt11char_traitsIcESaIcEE14_M_replace_auxEmmmc W
_ZNSt7__cxx1112basic_stringIcSt11char_traitsIcESaIcEE16_M_get_allocatorEv W
_ZNSt7__cxx1112basic_stringIcSt11char_traitsIcESaIcEE6appendEmc W
_ZNSt7__cxx1112basic_stringIcSt11char_traitsIcESaIcEE6resizeEm W
_ZNSt7__cxx1112basic_stringIcSt11char_traitsIcESaIcEE6resizeEmc W
_ZNSt7__cxx1112basic_stringIcSt11char_traitsIcESaIcEE7_M_dataEPc W
_ZNSt7__cxx1112basic_stringIcSt11char_traitsIcESaIcEE7_S_copyEPcPKcm W
_ZNSt7__cxx1112basic_stringIcSt11char_traitsIcESaIcEE7_S_moveEPcPKcm W
_ZNSt7__cxx1112basic_stringIcSt11char_traitsIcESaIcEE9_M_createERmm W
_ZNSt7__cxx1112basic_stringIcSt11char_traitsIcESaIcEE9_M_lengthEm W
_ZNSt7__cxx1112basic_stringIcSt11char_traitsIcESaIcEE9_M_mutateEmmPKcm W
_ZNSt7__cxx1112basic_stringIcSt11char_traitsIcESaIcEE9_S_assignEPcmc W
_Znwm12ImNewWrapperPv W
_ZnwmPv W
_ZSt11__addressofIKcEPT_RS1_ W
_ZSt12construct_atIcJRcEEDTgsnwcvPvLi0E_T_pispcl7declvalIT0_EEEEPS2_DpOS3_ W
_ZSt12construct_atIcJRKcEEDTgsnwcvPvLi0E_T_pispcl7declvalIT0_EEEEPS3_DpOS4_ W
_ZSt23__is_constant_evaluatedv W
_ZSt3cosf W
_ZSt4acosf W
_ZSt7forwardIRcEOT_RNSt16remove_referenceIS1_E4typeE W
_ZSt7forwardIRKcEOT_RNSt16remove_referenceIS2_E4typeE W
_ZSt9addressofIKcEPT_RS1_ W
